Microchip Technology Inc, v1.26 (A)

Tool Name:
  c:\program files (x86)\microchip\xc16\v1.26\bin\bin\..\bin/elf-ld.exe

Command:
  -p33FJ256GP710A \
  -o \
  dist/default/production/8004v1_10.production.elf \
  -Lc:/program files (x86)/microchip/xc16/v1.26/bin/bin/.. \
  -Lc:/program files (x86)/microchip/xc16/v1.26/bin/bin/../../lib \
  -Lc:/program files (x86)/microchip/xc16/v1.26/bin/bin/../../lib/PIC24E \
  -Lc:/program files (x86)/microchip/xc16/v1.26/bin/bin/../../support/PIC24E/gld \
  -Lc:/program files (x86)/microchip/xc16/v1.26/bin/bin/../../lib/PIC24F \
  -Lc:/program files (x86)/microchip/xc16/v1.26/bin/bin/../../support/PIC24F/gld \
  -Lc:/program files (x86)/microchip/xc16/v1.26/bin/bin/../../lib/PIC24H \
  -Lc:/program files (x86)/microchip/xc16/v1.26/bin/bin/../../support/PIC24H/gld \
  -Lc:/program files (x86)/microchip/xc16/v1.26/bin/bin/../../lib/dsPIC30F \
  -Lc:/program files (x86)/microchip/xc16/v1.26/bin/bin/../../support/dsPIC30F/gld \
  -Lc:/program files (x86)/microchip/xc16/v1.26/bin/bin/../../lib/dsPIC33E \
  -Lc:/program files (x86)/microchip/xc16/v1.26/bin/bin/../../support/dsPIC33E/gld \
  -Lc:/program files (x86)/microchip/xc16/v1.26/bin/bin/../../lib/dsPIC33F \
  -Lc:/program files (x86)/microchip/xc16/v1.26/bin/bin/../../support/dsPIC33F/gld \
  build/default/production/_ext/1472/LC8004delay_b.o \
  build/default/production/_ext/1472/LC8004extFRAM_i.o \
  build/default/production/_ext/1472/AD5241b.o \
  build/default/production/_ext/1472/lc8004main_1_10.o \
  --defsym=__MPLAB_BUILD=1 \
  -Tp33FJ256GP710A.gld.00 \
  --stack=16 \
  --check-sections \
  --data-init \
  --pack-data \
  --handles \
  --isr \
  --no-gc-sections \
  --fill-upper=0 \
  --stackguard=16 \
  --no-force-link \
  --smart-io \
  -Map=dist/default/production/8004v1_10.production.map \
  --report-mem \
  --memorysummary \
  dist/default/production/memoryfile.xml \
  -start-group \
  --library=lega-pic30-elf \
  --library=m-elf \
  --library=lega-c-elf \
  -end-group \

Archive member included because of file (symbol)

c:/program files (x86)/microchip/xc16/v1.26/bin/bin/../../lib/dsPIC33F\libp33FJ256GP710A-elf.a(CloseI2C1.o)
                              build/default/production/_ext/1472/LC8004extFRAM_i.o (_CloseI2C1)
c:/program files (x86)/microchip/xc16/v1.26/bin/bin/../../lib/dsPIC33F\libp33FJ256GP710A-elf.a(CloseI2C2.o)
                              build/default/production/_ext/1472/AD5241b.o (_CloseI2C2)
c:/program files (x86)/microchip/xc16/v1.26/bin/bin/../../lib/dsPIC33F\libp33FJ256GP710A-elf.a(IdleI2C1.o)
                              build/default/production/_ext/1472/LC8004extFRAM_i.o (_IdleI2C1)
c:/program files (x86)/microchip/xc16/v1.26/bin/bin/../../lib/dsPIC33F\libp33FJ256GP710A-elf.a(IdleI2C2.o)
                              build/default/production/_ext/1472/AD5241b.o (_IdleI2C2)
c:/program files (x86)/microchip/xc16/v1.26/bin/bin/../../lib/dsPIC33F\libp33FJ256GP710A-elf.a(MasterReadI2C1.o)
                              build/default/production/_ext/1472/LC8004extFRAM_i.o (_MasterReadI2C1)
c:/program files (x86)/microchip/xc16/v1.26/bin/bin/../../lib/dsPIC33F\libp33FJ256GP710A-elf.a(MasterReadI2C2.o)
                              build/default/production/_ext/1472/AD5241b.o (_MasterReadI2C2)
c:/program files (x86)/microchip/xc16/v1.26/bin/bin/../../lib/dsPIC33F\libp33FJ256GP710A-elf.a(MasterWriteI2C1.o)
                              build/default/production/_ext/1472/LC8004extFRAM_i.o (_MasterWriteI2C1)
c:/program files (x86)/microchip/xc16/v1.26/bin/bin/../../lib/dsPIC33F\libp33FJ256GP710A-elf.a(MasterWriteI2C2.o)
                              build/default/production/_ext/1472/AD5241b.o (_MasterWriteI2C2)
c:/program files (x86)/microchip/xc16/v1.26/bin/bin/../../lib/dsPIC33F\libp33FJ256GP710A-elf.a(NotAckI2C1.o)
                              build/default/production/_ext/1472/LC8004extFRAM_i.o (_NotAckI2C1)
c:/program files (x86)/microchip/xc16/v1.26/bin/bin/../../lib/dsPIC33F\libp33FJ256GP710A-elf.a(OpenI2C1.o)
                              build/default/production/_ext/1472/LC8004extFRAM_i.o (_OpenI2C1)
c:/program files (x86)/microchip/xc16/v1.26/bin/bin/../../lib/dsPIC33F\libp33FJ256GP710A-elf.a(OpenI2C2.o)
                              build/default/production/_ext/1472/AD5241b.o (_OpenI2C2)
c:/program files (x86)/microchip/xc16/v1.26/bin/bin/../../lib/dsPIC33F\libp33FJ256GP710A-elf.a(RestartI2C1.o)
                              build/default/production/_ext/1472/LC8004extFRAM_i.o (_RestartI2C1)
c:/program files (x86)/microchip/xc16/v1.26/bin/bin/../../lib/dsPIC33F\libp33FJ256GP710A-elf.a(StartI2C1.o)
                              build/default/production/_ext/1472/LC8004extFRAM_i.o (_StartI2C1)
c:/program files (x86)/microchip/xc16/v1.26/bin/bin/../../lib/dsPIC33F\libp33FJ256GP710A-elf.a(StartI2C2.o)
                              build/default/production/_ext/1472/AD5241b.o (_StartI2C2)
c:/program files (x86)/microchip/xc16/v1.26/bin/bin/../../lib/dsPIC33F\libp33FJ256GP710A-elf.a(StopI2C1.o)
                              build/default/production/_ext/1472/LC8004extFRAM_i.o (_StopI2C1)
c:/program files (x86)/microchip/xc16/v1.26/bin/bin/../../lib/dsPIC33F\libp33FJ256GP710A-elf.a(StopI2C2.o)
                              build/default/production/_ext/1472/AD5241b.o (_StopI2C2)
c:/program files (x86)/microchip/xc16/v1.26/bin/bin/../../lib/dsPIC33F\libp33FJ256GP710A-elf.a(CloseOC1.o)
                              build/default/production/_ext/1472/lc8004main_1_10.o (_CloseOC1)
c:/program files (x86)/microchip/xc16/v1.26/bin/bin/../../lib/dsPIC33F\libp33FJ256GP710A-elf.a(isWDTTO.o)
                              build/default/production/_ext/1472/lc8004main_1_10.o (_isWDTTO)
c:/program files (x86)/microchip/xc16/v1.26/bin/bin/../../lib/dsPIC33F\libp33FJ256GP710A-elf.a(CloseTimer23.o)
                              build/default/production/_ext/1472/lc8004main_1_10.o (_CloseTimer23)
c:/program files (x86)/microchip/xc16/v1.26/bin/bin/../../lib/dsPIC33F\libp33FJ256GP710A-elf.a(CloseTimer3.o)
                              build/default/production/_ext/1472/lc8004main_1_10.o (_CloseTimer3)
c:/program files (x86)/microchip/xc16/v1.26/bin/bin/../../lib/dsPIC33F\libp33FJ256GP710A-elf.a(ConfigIntTimer89.o)
                              build/default/production/_ext/1472/LC8004delay_b.o (_ConfigIntTimer89)
c:/program files (x86)/microchip/xc16/v1.26/bin/bin/../../lib/dsPIC33F\libp33FJ256GP710A-elf.a(OpenTimer3.o)
                              build/default/production/_ext/1472/lc8004main_1_10.o (_OpenTimer3)
c:/program files (x86)/microchip/xc16/v1.26/bin/bin/../../lib/dsPIC33F\libp33FJ256GP710A-elf.a(OpenTimer89.o)
                              build/default/production/_ext/1472/LC8004delay_b.o (_OpenTimer89)
c:/program files (x86)/microchip/xc16/v1.26/bin/bin/../../lib/dsPIC33F\libp33FJ256GP710A-elf.a(WriteTimer3.o)
                              build/default/production/_ext/1472/lc8004main_1_10.o (_WriteTimer3)
c:/program files (x86)/microchip/xc16/v1.26/bin/bin/../../lib/dsPIC33F\libp33FJ256GP710A-elf.a(WriteTimer89.o)
                              build/default/production/_ext/1472/LC8004delay_b.o (_WriteTimer89)
c:/program files (x86)/microchip/xc16/v1.26/bin/bin/../../lib/dsPIC33F\libp33FJ256GP710A-elf.a(BusyUART1.o)
                              build/default/production/_ext/1472/LC8004extFRAM_i.o (_BusyUART1)
c:/program files (x86)/microchip/xc16/v1.26/bin/bin/../../lib/dsPIC33F\libp33FJ256GP710A-elf.a(ConfigIntUART1.o)
                              build/default/production/_ext/1472/lc8004main_1_10.o (_ConfigIntUART1)
c:/program files (x86)/microchip/xc16/v1.26/bin/bin/../../lib/dsPIC33F\libp33FJ256GP710A-elf.a(DataRdyUART1.o)
                              build/default/production/_ext/1472/lc8004main_1_10.o (_DataRdyUART1)
c:/program files (x86)/microchip/xc16/v1.26/bin/bin/../../lib/dsPIC33F\libp33FJ256GP710A-elf.a(OpenUART1.o)
                              build/default/production/_ext/1472/lc8004main_1_10.o (_OpenUART1)
c:/program files (x86)/microchip/xc16/v1.26/bin/bin/../../lib/dsPIC33F\libp33FJ256GP710A-elf.a(putsUART1.o)
                              build/default/production/_ext/1472/LC8004extFRAM_i.o (_putsUART1)
c:/program files (x86)/microchip/xc16/v1.26/bin/bin/../../lib/dsPIC33F\libp33FJ256GP710A-elf.a(ReadUART1.o)
                              build/default/production/_ext/1472/LC8004extFRAM_i.o (_ReadUART1)
c:/program files (x86)/microchip/xc16/v1.26/bin/bin/../../lib/dsPIC33F\libp33FJ256GP710A-elf.a(WriteUART1.o)
                              build/default/production/_ext/1472/LC8004extFRAM_i.o (_WriteUART1)
c:/program files (x86)/microchip/xc16/v1.26/bin/bin/../../lib/dsPIC33F\libp33FJ256GP710A-elf.a(ConfigINT1.o)
                              build/default/production/_ext/1472/lc8004main_1_10.o (_ConfigINT1)
c:/program files (x86)/microchip/xc16/v1.26/bin/bin/../../lib\liblega-pic30-elf.a(crt0_standard.o)
                              (__resetPRI)
c:/program files (x86)/microchip/xc16/v1.26/bin/bin/../../lib\liblega-pic30-elf.a(data_init_standard.o)
                              c:/program files (x86)/microchip/xc16/v1.26/bin/bin/../../lib\liblega-pic30-elf.a(crt0_standard.o) (__data_init_standard)
c:/program files (x86)/microchip/xc16/v1.26/bin/bin/../../lib\liblega-pic30-elf.a(delay32.Leo)
                              build/default/production/_ext/1472/lc8004main_1_10.o (___delay32)
c:/program files (x86)/microchip/xc16/v1.26/bin/bin/../../lib\libm-elf.a(addsf3.eo)
                              build/default/production/_ext/1472/LC8004delay_b.o (___subsf3)
c:/program files (x86)/microchip/xc16/v1.26/bin/bin/../../lib\libm-elf.a(divsf3.eo)
                              build/default/production/_ext/1472/LC8004delay_b.o (___divsf3)
c:/program files (x86)/microchip/xc16/v1.26/bin/bin/../../lib\libm-elf.a(feqltle.eo)
                              build/default/production/_ext/1472/LC8004extFRAM_i.o (___eqsf2)
c:/program files (x86)/microchip/xc16/v1.26/bin/bin/../../lib\libm-elf.a(fgtge.eo)
                              build/default/production/_ext/1472/LC8004extFRAM_i.o (___gtsf2)
c:/program files (x86)/microchip/xc16/v1.26/bin/bin/../../lib\libm-elf.a(fixsfsi.eo)
                              build/default/production/_ext/1472/lc8004main_1_10.o (_(float, int, long long, short, float, short, int))
c:/program files (x86)/microchip/xc16/v1.26/bin/bin/../../lib\libm-elf.a(fixunssfsi.eo)
                              build/default/production/_ext/1472/LC8004delay_b.o (___fixunssfsi)
c:/program files (x86)/microchip/xc16/v1.26/bin/bin/../../lib\libm-elf.a(floatsisf.eo)
                              build/default/production/_ext/1472/lc8004main_1_10.o (___floatsisf)
c:/program files (x86)/microchip/xc16/v1.26/bin/bin/../../lib\libm-elf.a(floatunsisf.eo)
                              build/default/production/_ext/1472/LC8004delay_b.o (___floatunsisf)
c:/program files (x86)/microchip/xc16/v1.26/bin/bin/../../lib\libm-elf.a(fne.eo)
                              build/default/production/_ext/1472/lc8004main_1_10.o (___nesf2)
c:/program files (x86)/microchip/xc16/v1.26/bin/bin/../../lib\libm-elf.a(fpack.eo)
                              c:/program files (x86)/microchip/xc16/v1.26/bin/bin/../../lib\libm-elf.a(addsf3.eo) (__fpack)
c:/program files (x86)/microchip/xc16/v1.26/bin/bin/../../lib\libm-elf.a(funpack.eo)
                              c:/program files (x86)/microchip/xc16/v1.26/bin/bin/../../lib\libm-elf.a(fixsfsi.eo) (__funpack)
c:/program files (x86)/microchip/xc16/v1.26/bin/bin/../../lib\libm-elf.a(funpack2.eo)
                              c:/program files (x86)/microchip/xc16/v1.26/bin/bin/../../lib\libm-elf.a(addsf3.eo) (__funpack2)
c:/program files (x86)/microchip/xc16/v1.26/bin/bin/../../lib\libm-elf.a(futil.eo)
                              c:/program files (x86)/microchip/xc16/v1.26/bin/bin/../../lib\libm-elf.a(addsf3.eo) (__fPropagateNaN)
c:/program files (x86)/microchip/xc16/v1.26/bin/bin/../../lib\libm-elf.a(logf.eo)
                              build/default/production/_ext/1472/lc8004main_1_10.o (_logf)
c:/program files (x86)/microchip/xc16/v1.26/bin/bin/../../lib\libm-elf.a(mulsf3.eo)
                              build/default/production/_ext/1472/lc8004main_1_10.o (___mulsf3)
c:/program files (x86)/microchip/xc16/v1.26/bin/bin/../../lib\libm-elf.a(umodsi3.eo)
                              build/default/production/_ext/1472/lc8004main_1_10.o (___umodsi3)
c:/program files (x86)/microchip/xc16/v1.26/bin/bin/../../lib\libm-elf.a(_frexpf.eo)
                              c:/program files (x86)/microchip/xc16/v1.26/bin/bin/../../lib\libm-elf.a(logf.eo) (__frexpf)
c:/program files (x86)/microchip/xc16/v1.26/bin/bin/../../lib\libm-elf.a(errno.eo)
                              c:/program files (x86)/microchip/xc16/v1.26/bin/bin/../../lib\libm-elf.a(logf.eo) (_errno)
c:/program files (x86)/microchip/xc16/v1.26/bin/bin/../../lib\libm-elf.a(fcompare.eo)
                              c:/program files (x86)/microchip/xc16/v1.26/bin/bin/../../lib\libm-elf.a(feqltle.eo) (__fcompare)
c:/program files (x86)/microchip/xc16/v1.26/bin/bin/../../lib\libm-elf.a(floatdisf.eo)
                              c:/program files (x86)/microchip/xc16/v1.26/bin/bin/../../lib\libm-elf.a(floatsisf.eo) (___floatdisf)
c:/program files (x86)/microchip/xc16/v1.26/bin/bin/../../lib\libm-elf.a(floatundisf.eo)
                              c:/program files (x86)/microchip/xc16/v1.26/bin/bin/../../lib\libm-elf.a(floatunsisf.eo) (___floatundisf)
c:/program files (x86)/microchip/xc16/v1.26/bin/bin/../../lib\libm-elf.a(udivsi3.eo)
                              c:/program files (x86)/microchip/xc16/v1.26/bin/bin/../../lib\libm-elf.a(umodsi3.eo) (___udivsi3)
c:/program files (x86)/microchip/xc16/v1.26/bin/bin/../../lib\liblega-c-elf.a(isalpha.XXeso)
                              build/default/production/_ext/1472/lc8004main_1_10.o (_isalpha)
c:/program files (x86)/microchip/xc16/v1.26/bin/bin/../../lib\liblega-c-elf.a(isgraph.XXeso)
                              build/default/production/_ext/1472/lc8004main_1_10.o (_isgraph)
c:/program files (x86)/microchip/xc16/v1.26/bin/bin/../../lib\liblega-c-elf.a(sprintf_cdnopuxX.XXeo)
                              build/default/production/_ext/1472/lc8004main_1_10.o (__sprintf_cdnopuxX)
c:/program files (x86)/microchip/xc16/v1.26/bin/bin/../../lib\liblega-c-elf.a(xprintf_cdnopuxX.XXeo)
                              c:/program files (x86)/microchip/xc16/v1.26/bin/bin/../../lib\liblega-c-elf.a(sprintf_cdnopuxX.XXeo) (___Printf_cdnopuxX)
c:/program files (x86)/microchip/xc16/v1.26/bin/bin/../../lib\liblega-c-elf.a(xputfld_cdnopuxX.XXeo)
                              c:/program files (x86)/microchip/xc16/v1.26/bin/bin/../../lib\liblega-c-elf.a(xprintf_cdnopuxX.XXeo) (___Putfld_cdnopuxX)
c:/program files (x86)/microchip/xc16/v1.26/bin/bin/../../lib\liblega-c-elf.a(sprintf_cdfFnopuxX.XXeo)
                              build/default/production/_ext/1472/lc8004main_1_10.o (__sprintf_cdfFnopuxX)
c:/program files (x86)/microchip/xc16/v1.26/bin/bin/../../lib\liblega-c-elf.a(xprintf_cdfFnopuxX.XXeo)
                              c:/program files (x86)/microchip/xc16/v1.26/bin/bin/../../lib\liblega-c-elf.a(sprintf_cdfFnopuxX.XXeo) (___Printf_cdfFnopuxX)
c:/program files (x86)/microchip/xc16/v1.26/bin/bin/../../lib\liblega-c-elf.a(xputfld_cdfFnopuxX.XXeo)
                              c:/program files (x86)/microchip/xc16/v1.26/bin/bin/../../lib\liblega-c-elf.a(xprintf_cdfFnopuxX.XXeo) (___Putfld_cdfFnopuxX)
c:/program files (x86)/microchip/xc16/v1.26/bin/bin/../../lib\liblega-c-elf.a(xldtob_cdfFnopuxX.XXeo)
                              c:/program files (x86)/microchip/xc16/v1.26/bin/bin/../../lib\liblega-c-elf.a(xputfld_cdfFnopuxX.XXeo) (___Ldtob_cdfFnopuxX)
c:/program files (x86)/microchip/xc16/v1.26/bin/bin/../../lib\liblega-c-elf.a(xgenld_cdfFnopuxX.XXeo)
                              c:/program files (x86)/microchip/xc16/v1.26/bin/bin/../../lib\liblega-c-elf.a(xldtob_cdfFnopuxX.XXeo) (___Genld_cdfFnopuxX)
c:/program files (x86)/microchip/xc16/v1.26/bin/bin/../../lib\liblega-c-elf.a(div.XXeo)
                              c:/program files (x86)/microchip/xc16/v1.26/bin/bin/../../lib\liblega-c-elf.a(xgenld_cdfFnopuxX.XXeo) (_div)
c:/program files (x86)/microchip/xc16/v1.26/bin/bin/../../lib\liblega-c-elf.a(ldiv.XXeo)
                              c:/program files (x86)/microchip/xc16/v1.26/bin/bin/../../lib\liblega-c-elf.a(xldtob_cdfFnopuxX.XXeo) (_ldiv)
c:/program files (x86)/microchip/xc16/v1.26/bin/bin/../../lib\liblega-c-elf.a(memcpy.XXeo)
                              c:/program files (x86)/microchip/xc16/v1.26/bin/bin/../../lib\liblega-c-elf.a(sprintf_cdnopuxX.XXeo) (_memcpy)
c:/program files (x86)/microchip/xc16/v1.26/bin/bin/../../lib\liblega-c-elf.a(strchr.XXeo)
                              c:/program files (x86)/microchip/xc16/v1.26/bin/bin/../../lib\liblega-c-elf.a(xprintf_cdnopuxX.XXeo) (_strchr)
c:/program files (x86)/microchip/xc16/v1.26/bin/bin/../../lib\liblega-c-elf.a(xldunsca.XXeo)
                              c:/program files (x86)/microchip/xc16/v1.26/bin/bin/../../lib\liblega-c-elf.a(xldtob_cdfFnopuxX.XXeo) (__LDunscale)
c:/program files (x86)/microchip/xc16/v1.26/bin/bin/../../lib\liblega-c-elf.a(xlitob.XXeo)
                              c:/program files (x86)/microchip/xc16/v1.26/bin/bin/../../lib\liblega-c-elf.a(xputfld_cdnopuxX.XXeo) (__Litob)
c:/program files (x86)/microchip/xc16/v1.26/bin/bin/../../lib\liblega-c-elf.a(xputtxt.XXeo)
                              c:/program files (x86)/microchip/xc16/v1.26/bin/bin/../../lib\liblega-c-elf.a(xprintf_cdnopuxX.XXeo) (__Puttxt)
c:/program files (x86)/microchip/xc16/v1.26/bin/bin/../../lib\liblega-c-elf.a(xvacopy.XXeo)
                              c:/program files (x86)/microchip/xc16/v1.26/bin/bin/../../lib\liblega-c-elf.a(xprintf_cdnopuxX.XXeo) (__Vacopy)
c:/program files (x86)/microchip/xc16/v1.26/bin/bin/../../lib\liblega-c-elf.a(xdnorm.XXelo)
                              c:/program files (x86)/microchip/xc16/v1.26/bin/bin/../../lib\liblega-c-elf.a(xldunsca.XXeo) (__Dnorm)
c:/program files (x86)/microchip/xc16/v1.26/bin/bin/../../lib\libm-elf.a(deqltle.eo)
                              c:/program files (x86)/microchip/xc16/v1.26/bin/bin/../../lib\liblega-c-elf.a(xldtob_cdfFnopuxX.XXeo) (___ltdf2)
c:/program files (x86)/microchip/xc16/v1.26/bin/bin/../../lib\libm-elf.a(dgtge.eo)
                              c:/program files (x86)/microchip/xc16/v1.26/bin/bin/../../lib\liblega-c-elf.a(xldtob_cdfFnopuxX.XXeo) (___gtdf2)
c:/program files (x86)/microchip/xc16/v1.26/bin/bin/../../lib\libm-elf.a(divdf3.eo)
                              c:/program files (x86)/microchip/xc16/v1.26/bin/bin/../../lib\liblega-c-elf.a(xldtob_cdfFnopuxX.XXeo) (___divdf3)
c:/program files (x86)/microchip/xc16/v1.26/bin/bin/../../lib\libm-elf.a(divsi3.eo)
                              c:/program files (x86)/microchip/xc16/v1.26/bin/bin/../../lib\liblega-c-elf.a(xldtob_cdfFnopuxX.XXeo) (___divsi3)
c:/program files (x86)/microchip/xc16/v1.26/bin/bin/../../lib\libm-elf.a(dpack.eo)
                              c:/program files (x86)/microchip/xc16/v1.26/bin/bin/../../lib\libm-elf.a(divdf3.eo) (__dpack)
c:/program files (x86)/microchip/xc16/v1.26/bin/bin/../../lib\libm-elf.a(dunpack2.eo)
                              c:/program files (x86)/microchip/xc16/v1.26/bin/bin/../../lib\libm-elf.a(divdf3.eo) (__dunpack2)
c:/program files (x86)/microchip/xc16/v1.26/bin/bin/../../lib\libm-elf.a(extendsfdf.eo)
                              c:/program files (x86)/microchip/xc16/v1.26/bin/bin/../../lib\liblega-c-elf.a(xputfld_cdfFnopuxX.XXeo) (___extendsfdf2)
c:/program files (x86)/microchip/xc16/v1.26/bin/bin/../../lib\libm-elf.a(fixdfsi.eo)
                              c:/program files (x86)/microchip/xc16/v1.26/bin/bin/../../lib\liblega-c-elf.a(xldtob_cdfFnopuxX.XXeo) (_(float, int, long long, double, float, short, int))
c:/program files (x86)/microchip/xc16/v1.26/bin/bin/../../lib\libm-elf.a(floatsidf.eo)
                              c:/program files (x86)/microchip/xc16/v1.26/bin/bin/../../lib\liblega-c-elf.a(xldtob_cdfFnopuxX.XXeo) (___floatsidf)
c:/program files (x86)/microchip/xc16/v1.26/bin/bin/../../lib\libm-elf.a(muldf3.eo)
                              c:/program files (x86)/microchip/xc16/v1.26/bin/bin/../../lib\liblega-c-elf.a(xldtob_cdfFnopuxX.XXeo) (___muldf3)
c:/program files (x86)/microchip/xc16/v1.26/bin/bin/../../lib\libm-elf.a(subdf3.eo)
                              c:/program files (x86)/microchip/xc16/v1.26/bin/bin/../../lib\liblega-c-elf.a(xldtob_cdfFnopuxX.XXeo) (___subdf3)
c:/program files (x86)/microchip/xc16/v1.26/bin/bin/../../lib\libm-elf.a(mulsi3.eo)
                              c:/program files (x86)/microchip/xc16/v1.26/bin/bin/../../lib\liblega-c-elf.a(ldiv.XXeo) (___mulsi3)
c:/program files (x86)/microchip/xc16/v1.26/bin/bin/../../lib\libm-elf.a(divmoddi3.eo)
                              c:/program files (x86)/microchip/xc16/v1.26/bin/bin/../../lib\liblega-c-elf.a(xlitob.XXeo) (___udivdi3)
c:/program files (x86)/microchip/xc16/v1.26/bin/bin/../../lib\libm-elf.a(adddf3.eo)
                              c:/program files (x86)/microchip/xc16/v1.26/bin/bin/../../lib\libm-elf.a(subdf3.eo) (___adddf3)
c:/program files (x86)/microchip/xc16/v1.26/bin/bin/../../lib\libm-elf.a(dcompare.eo)
                              c:/program files (x86)/microchip/xc16/v1.26/bin/bin/../../lib\libm-elf.a(deqltle.eo) (__dcompare)
c:/program files (x86)/microchip/xc16/v1.26/bin/bin/../../lib\libm-elf.a(dpropagateNaN.eo)
                              c:/program files (x86)/microchip/xc16/v1.26/bin/bin/../../lib\libm-elf.a(dunpack2.eo) (__dPropagateNaN)
c:/program files (x86)/microchip/xc16/v1.26/bin/bin/../../lib\libm-elf.a(dtype.eo)
                              c:/program files (x86)/microchip/xc16/v1.26/bin/bin/../../lib\libm-elf.a(dcompare.eo) (__dtype)
c:/program files (x86)/microchip/xc16/v1.26/bin/bin/../../lib\libm-elf.a(dunpack.eo)
                              c:/program files (x86)/microchip/xc16/v1.26/bin/bin/../../lib\libm-elf.a(dunpack2.eo) (__dunpack)
c:/program files (x86)/microchip/xc16/v1.26/bin/bin/../../lib\libm-elf.a(floatdidf.eo)
                              c:/program files (x86)/microchip/xc16/v1.26/bin/bin/../../lib\libm-elf.a(floatsidf.eo) (___floatdidf)
c:/program files (x86)/microchip/xc16/v1.26/bin/bin/../../lib\libm-elf.a(floatundidf.eo)
                              c:/program files (x86)/microchip/xc16/v1.26/bin/bin/../../lib\libm-elf.a(floatdidf.eo) (___floatundidf)


Selected CodeGuard Options:
  FBS:BWRP:WRPROTECT_OFF
  FBS:BSS:NO_FLASH
  FBS:RBS:NO_RAM
  FSS:SWRP:WRPROTECT_OFF
  FSS:SSS:NO_FLASH
  FSS:RSS:NO_RAM
  FGS:GWRP:OFF
  FGS:GSS:OFF

CodeGuard FLASH Memory:
  boot    (none)
  secure  (none)
  general 0x200 to 0x2abfe

CodeGuard RAM Memory:
  general 0x800 to 0x7fff
  secure  (none)
  boot    (none)


xc16-ld 1.26 (A)

Program Memory  [Origin = 0x200, Length = 0x2aa00]

section                    address   length (PC units)   length (bytes) (dec)
-------                    -------   -----------------   --------------------
.text                        0x200              0x1c5a          0x2a87  (10887)
.text                       0x1e5a             0x19ee2         0x26e53  (159315)
.dinit                     0x1bd3c              0x150e          0x1f95  (8085)
.text                      0x1d24a              0x1110          0x1998  (6552)
.init.delay32              0x1e35a                0x1c            0x2a  (42)
.shared.dinit              0x1e376                 0x2             0x3  (3)

                 Total program memory used (bytes):        0x2d234  (184884) 70%


Ivt Memory  [Origin = 0x4, Length = 0xfc]

section                    address   length (PC units)   length (bytes) (dec)
-------                    -------   -----------------   --------------------
.ivt._OscillatorFail           0x6                 0x2             0x3  (3)
.ivt._INT0Interrupt           0x14                 0x2             0x3  (3)
.ivt._IC1Interrupt            0x16                 0x2             0x3  (3)
.ivt._OC1Interrupt            0x18                 0x2             0x3  (3)
.ivt._T1Interrupt             0x1a                 0x2             0x3  (3)
.ivt._DMA0Interrupt           0x1c                 0x2             0x3  (3)
.ivt._IC2Interrupt            0x1e                 0x2             0x3  (3)
.ivt._OC2Interrupt            0x20                 0x2             0x3  (3)
.ivt._T2Interrupt             0x22                 0x2             0x3  (3)
.ivt._T3Interrupt             0x24                 0x2             0x3  (3)
.ivt._SPI1Interrupt           0x28                 0x2             0x3  (3)
.ivt._U1RXInterrupt           0x2a                 0x2             0x3  (3)
.ivt._U1TXInterrupt           0x2c                 0x2             0x3  (3)
.ivt._ADC1Interrupt           0x2e                 0x2             0x3  (3)
.ivt._DMA1Interrupt           0x30                 0x2             0x3  (3)
.ivt._SI2C1Interrupt          0x34                 0x2             0x3  (3)
.ivt._MI2C1Interrupt          0x36                 0x2             0x3  (3)
.ivt._CNInterrupt             0x3a                 0x2             0x3  (3)
.ivt._INT1Interrupt           0x3c                 0x2             0x3  (3)
.ivt._ADC2Interrupt           0x3e                 0x2             0x3  (3)
.ivt._IC7Interrupt            0x40                 0x2             0x3  (3)
.ivt._IC8Interrupt            0x42                 0x2             0x3  (3)
.ivt._DMA2Interrupt           0x44                 0x2             0x3  (3)
.ivt._OC3Interrupt            0x46                 0x2             0x3  (3)
.ivt._OC4Interrupt            0x48                 0x2             0x3  (3)
.ivt._T4Interrupt             0x4a                 0x2             0x3  (3)
.ivt._T5Interrupt             0x4c                 0x2             0x3  (3)
.ivt._INT2Interrupt           0x4e                 0x2             0x3  (3)
.ivt._U2RXInterrupt           0x50                 0x2             0x3  (3)
.ivt._U2TXInterrupt           0x52                 0x2             0x3  (3)
.ivt._SPI2ErrInterrupt        0x54                 0x2             0x3  (3)
.ivt._SPI2Interrupt           0x56                 0x2             0x3  (3)
.ivt._C1RxRdyInterrupt        0x58                 0x2             0x3  (3)
.ivt._C1Interrupt             0x5a                 0x2             0x3  (3)
.ivt._DMA3Interrupt           0x5c                 0x2             0x3  (3)
.ivt._IC3Interrupt            0x5e                 0x2             0x3  (3)
.ivt._IC4Interrupt            0x60                 0x2             0x3  (3)
.ivt._IC5Interrupt            0x62                 0x2             0x3  (3)
.ivt._IC6Interrupt            0x64                 0x2             0x3  (3)
.ivt._OC5Interrupt            0x66                 0x2             0x3  (3)
.ivt._OC6Interrupt            0x68                 0x2             0x3  (3)
.ivt._OC7Interrupt            0x6a                 0x2             0x3  (3)
.ivt._OC8Interrupt            0x6c                 0x2             0x3  (3)
.ivt._DMA4Interrupt           0x70                 0x2             0x3  (3)
.ivt._T6Interrupt             0x72                 0x2             0x3  (3)
.ivt._T7Interrupt             0x74                 0x2             0x3  (3)
.ivt._SI2C2Interrupt          0x76                 0x2             0x3  (3)
.ivt._MI2C2Interrupt          0x78                 0x2             0x3  (3)
.ivt._T8Interrupt             0x7a                 0x2             0x3  (3)
.ivt._T9Interrupt             0x7c                 0x2             0x3  (3)
.ivt._INT3Interrupt           0x7e                 0x2             0x3  (3)
.ivt._INT4Interrupt           0x80                 0x2             0x3  (3)
.ivt._C2RxRdyInterrupt        0x82                 0x2             0x3  (3)
.ivt._C2Interrupt             0x84                 0x2             0x3  (3)
.ivt._DCIErrInterrupt         0x8a                 0x2             0x3  (3)
.ivt._DCIInterrupt            0x8c                 0x2             0x3  (3)
.ivt._DMA5Interrupt           0x8e                 0x2             0x3  (3)
.ivt._U1ErrInterrupt          0x96                 0x2             0x3  (3)
.ivt._U2ErrInterrupt          0x98                 0x2             0x3  (3)
.ivt._DMA6Interrupt           0x9c                 0x2             0x3  (3)
.ivt._DMA7Interrupt           0x9e                 0x2             0x3  (3)
.ivt._C1TxReqInterrupt        0xa0                 0x2             0x3  (3)
.ivt._C2TxReqInterrupt        0xa2                 0x2             0x3  (3)


Aivt Memory  [Origin = 0x104, Length = 0xfc]

section                    address   length (PC units)   length (bytes) (dec)
-------                    -------   -----------------   --------------------
.aivt._AltOscillatorFail     0x106                 0x2             0x3  (3)
.aivt._AltINT0Interrupt      0x114                 0x2             0x3  (3)
.aivt._AltIC1Interrupt       0x116                 0x2             0x3  (3)
.aivt._AltOC1Interrupt       0x118                 0x2             0x3  (3)
.aivt._AltT1Interrupt        0x11a                 0x2             0x3  (3)
.aivt._AltDMA0Interrupt      0x11c                 0x2             0x3  (3)
.aivt._AltIC2Interrupt       0x11e                 0x2             0x3  (3)
.aivt._AltOC2Interrupt       0x120                 0x2             0x3  (3)
.aivt._AltT2Interrupt        0x122                 0x2             0x3  (3)
.aivt._AltT3Interrupt        0x124                 0x2             0x3  (3)
.aivt._AltSPI1Interrupt      0x128                 0x2             0x3  (3)
.aivt._AltU1RXInterrupt      0x12a                 0x2             0x3  (3)
.aivt._AltU1TXInterrupt      0x12c                 0x2             0x3  (3)
.aivt._AltADC1Interrupt      0x12e                 0x2             0x3  (3)
.aivt._AltDMA1Interrupt      0x130                 0x2             0x3  (3)
.aivt._AltSI2C1Interrupt     0x134                 0x2             0x3  (3)
.aivt._AltMI2C1Interrupt     0x136                 0x2             0x3  (3)
.aivt._AltCNInterrupt        0x13a                 0x2             0x3  (3)
.aivt._AltINT1Interrupt      0x13c                 0x2             0x3  (3)
.aivt._AltADC2Interrupt      0x13e                 0x2             0x3  (3)
.aivt._AltIC7Interrupt       0x140                 0x2             0x3  (3)
.aivt._AltIC8Interrupt       0x142                 0x2             0x3  (3)
.aivt._AltDMA2Interrupt      0x144                 0x2             0x3  (3)
.aivt._AltOC3Interrupt       0x146                 0x2             0x3  (3)
.aivt._AltOC4Interrupt       0x148                 0x2             0x3  (3)
.aivt._AltT4Interrupt        0x14a                 0x2             0x3  (3)
.aivt._AltT5Interrupt        0x14c                 0x2             0x3  (3)
.aivt._AltINT2Interrupt      0x14e                 0x2             0x3  (3)
.aivt._AltU2RXInterrupt      0x150                 0x2             0x3  (3)
.aivt._AltU2TXInterrupt      0x152                 0x2             0x3  (3)
.aivt._AltSPI2ErrInterrupt     0x154                 0x2             0x3  (3)
.aivt._AltSPI2Interrupt      0x156                 0x2             0x3  (3)
.aivt._AltC1RxRdyInterrupt     0x158                 0x2             0x3  (3)
.aivt._AltC1Interrupt        0x15a                 0x2             0x3  (3)
.aivt._AltDMA3Interrupt      0x15c                 0x2             0x3  (3)
.aivt._AltIC3Interrupt       0x15e                 0x2             0x3  (3)
.aivt._AltIC4Interrupt       0x160                 0x2             0x3  (3)
.aivt._AltIC5Interrupt       0x162                 0x2             0x3  (3)
.aivt._AltIC6Interrupt       0x164                 0x2             0x3  (3)
.aivt._AltOC5Interrupt       0x166                 0x2             0x3  (3)
.aivt._AltOC6Interrupt       0x168                 0x2             0x3  (3)
.aivt._AltOC7Interrupt       0x16a                 0x2             0x3  (3)
.aivt._AltOC8Interrupt       0x16c                 0x2             0x3  (3)
.aivt._AltDMA4Interrupt      0x170                 0x2             0x3  (3)
.aivt._AltT6Interrupt        0x172                 0x2             0x3  (3)
.aivt._AltT7Interrupt        0x174                 0x2             0x3  (3)
.aivt._AltSI2C2Interrupt     0x176                 0x2             0x3  (3)
.aivt._AltMI2C2Interrupt     0x178                 0x2             0x3  (3)
.aivt._AltT8Interrupt        0x17a                 0x2             0x3  (3)
.aivt._AltT9Interrupt        0x17c                 0x2             0x3  (3)
.aivt._AltINT3Interrupt      0x17e                 0x2             0x3  (3)
.aivt._AltINT4Interrupt      0x180                 0x2             0x3  (3)
.aivt._AltC2RxRdyInterrupt     0x182                 0x2             0x3  (3)
.aivt._AltC2Interrupt        0x184                 0x2             0x3  (3)
.aivt._AltDCIErrInterrupt     0x18a                 0x2             0x3  (3)
.aivt._AltDCIInterrupt       0x18c                 0x2             0x3  (3)
.aivt._AltDMA5Interrupt      0x18e                 0x2             0x3  (3)
.aivt._AltU1ErrInterrupt     0x196                 0x2             0x3  (3)
.aivt._AltU2ErrInterrupt     0x198                 0x2             0x3  (3)
.aivt._AltDMA6Interrupt      0x19c                 0x2             0x3  (3)
.aivt._AltDMA7Interrupt      0x19e                 0x2             0x3  (3)
.aivt._AltC1TxReqInterrupt     0x1a0                 0x2             0x3  (3)
.aivt._AltC2TxReqInterrupt     0x1a2                 0x2             0x3  (3)


Data Memory  [Origin = 0x800, Length = 0x7800]

section                    address      alignment gaps    total length  (dec)
-------                    -------      --------------    -------------------
.nbss                        0x800                   0             0x2  (2)
.data                        0x802                   0          0x1e92  (7826)
.bss                        0x2694                   0           0x31e  (798)
.data                       0x29b2                   0            0xa6  (166)
.bss                        0x2a58                   0             0x6  (6)
.data                       0x2a5e                   0             0x2  (2)

                 Total data memory used (bytes):         0x2260  (8800) 28%


Dynamic Memory Usage

region                     address                      maximum length  (dec)
------                     -------                      ---------------------
heap                             0                                   0  (0)
stack                       0x2a60                              0x55a0  (21920)

                 Maximum dynamic memory (bytes):         0x55a0  (21920)


External Symbols in Data Memory (by address):

                    0x0802                  _gain
                    0x0804                  _maxSingleVW
                    0x0806                  _maxFourVW
                    0x0808                  _maxEightVW
                    0x080a                  _maxSixteenVW
                    0x080c                  _maxThirtytwoVW
                    0x080e                  _maxEightTH
                    0x0810                  _maxThirtytwoTH
                    0x0812                  _minScanSingleVW
                    0x0813                  _minScanFourVW
                    0x0814                  _minScanEightVW
                    0x0815                  _minScanSixteenVW
                    0x0816                  _minScanThirtytwoVW
                    0x0817                  _minScanEightTH
                    0x0818                  _minScanThirtytwoTH
                    0x081a                  _VAGC_MIN
                    0x081c                  _LogIntLength
                    0x0820                  _V0_5
                    0x0822                  _TimeOut
                    0x0824                  _tcy
                    0x0828                  _mS512
                    0x082c                  _mS256
                    0x0830                  _mS128
                    0x0834                  _mS64
                    0x0838                  _mS32
                    0x083c                  _mS16
                    0x0840                  _mS8
                    0x0844                  _mul3V
                    0x0848                  _mul12V
                    0x084c                  _mullith3V
                    0x0850                  _Vref
                    0x0854                  _bat_12LOW
                    0x0858                  _bat_3LOW
                    0x085c                  _bat_3MIN
                    0x0860                  _bat_12MIN
                    0x0864                  _passwordbyte3
                    0x0865                  _passwordbyte2
                    0x0866                  _passwordbyte1
                    0x0867                  _passwordbyte0
                    0x0868                  _gageFactor
                    0x086c                  _polyCoA
                    0x0870                  _polyCoB
                    0x0874                  _polyCoC
                    0x0878                  _C0
                    0x087c                  _C1
                    0x0880                  _C2
                    0x0884                  _C3
                    0x0888                  _C4
                    0x088c                  _C5
                    0x0890                  _AllChannelsLoaded
                    0x08b6                  _Blankarray
                    0x08c3                  _BT
                    0x08ec                  _BT0
                    0x0916                  _BT1
                    0x093f                  _BTD
                    0x096f                  _BTE
                    0x099e                  _BTOFF
                    0x09ad                  _BTON
                    0x09bb                  _BTDisablenotAllowed
                    0x09ec                  _BTR
                    0x0a13                  _BTTIMEREN
                    0x0a2b                  _BTTIMERDIS
                    0x0a44                  _c
                    0x0a66                  _Calclock
                    0x0a83                  _CH1
                    0x0a8a                  _CH2
                    0x0a91                  _CH3
                    0x0a98                  _CH4
                    0x0a9f                  _CH5
                    0x0aa6                  _CH6
                    0x0aad                  _CH7
                    0x0ab4                  _CH8
                    0x0abb                  _CH9
                    0x0ac2                  _CH10
                    0x0aca                  _CH11
                    0x0ad2                  _CH12
                    0x0ada                  _CH13
                    0x0ae2                  _CH14
                    0x0aea                  _CH15
                    0x0af2                  _CH16
                    0x0afa                  _CH17
                    0x0b02                  _CH18
                    0x0b0a                  _CH19
                    0x0b12                  _CH20
                    0x0b1a                  _CH21
                    0x0b22                  _CH22
                    0x0b2a                  _CH23
                    0x0b32                  _CH24
                    0x0b3a                  _CH25
                    0x0b42                  _CH26
                    0x0b4a                  _CH27
                    0x0b52                  _CH28
                    0x0b5a                  _CH29
                    0x0b62                  _CH30
                    0x0b6a                  _CH31
                    0x0b72                  _CH32
                    0x0b7a                  _Clockset
                    0x0b9b                  _CnotAllowed
                    0x0bca                  _CommandDescription
                    0x0bed                  _ConfigureChannel
                    0x0c01                  _CPOFF
                    0x0c13                  _CPON
                    0x0c24                  _CPTIMERACT
                    0x0c37                  _CPTIMERDEACT
                    0x0c4c                  _CPTIMEREN
                    0x0c68                  _CPTIMERDIS
                    0x0c85                  _Dashes
                    0x0cb6                  _DataloggerID
                    0x0cc5                  _Date
                    0x0ccc                  _Datejulian
                    0x0ce3                  _Datemonthday
                    0x0cfd                  _Default
                    0x0d32                  _DefaultsNotLoaded
                    0x0d5d                  _DF
                    0x0d96                  _Disabled
                    0x0d9f                  _DisabledDisplay
                    0x0da3                  _Displaynext
                    0x0dd4                  _Displaynnnn
                    0x0e0d                  _DL
                    0x0e28                  _DnotAllowed
                    0x0e4a                  _Enabled
                    0x0e52                  _End
                    0x0e8c                  _Error
                    0x0e92                  _Errors
                    0x0ea6                  _Escape
                    0x0ebd                  _ExtInOff
                    0x0f05                  _Exttemp
                    0x0f1b                  _forLinear
                    0x0f3f                  _forPoly
                    0x0f67                  _GageinfoWhere
                    0x0f80                  _GageinformationA
                    0x0fa1                  _GageinformationZ
                    0x0fc2                  _GF
                    0x0fca                  _GO
                    0x0fd2                  _GT
                    0x0fd7                  _Hello
                    0x0ff0                  _Hightemp1
                    0x100e                  _Hightemp2
                    0x102e                  _Hightemp3
                    0x104b                  _ID
                    0x108a                  _Interval
                    0x1095                  _Inttemp
                    0x10ab                  _Iterations
                    0x10b8                  _iterations
                    0x10ec                  _LCfour
                    0x10f1                  _LCfourbyfour
                    0x10f8                  _LCfourbysixteen
                    0x1100                  _LCfourbyeightVW
                    0x1109                  _LCfourbyeightTH
                    0x1112                  _LCfourbythirtytwoVW
                    0x111c                  _LCfourbythirtytwoTH
                    0x1126                  _Length
                    0x112f                  _length
                    0x1155                  _Lithiumcell
                    0x1163                  _LithiumVoltage
                    0x117b                  _Log
                    0x11b4                  _Logdisabled
                    0x11cc                  _Logdisenable
                    0x1201                  _Logenabled
                    0x1218                  _Loggingalreadystarted
                    0x1231                  _Loggingalreadystopped
                    0x124a                  _Loggingstarted
                    0x125b                  _Loggingstopped
                    0x126c                  _Loggingwillstart
                    0x1284                  _Loggingwillstop
                    0x129b                  _Loggingwillstopmemfull
                    0x12c1                  _Loggingwillnotstopmemfull
                    0x12eb                  _Logintalreadydisabled
                    0x130b                  _Logintalreadyenabled
                    0x132a                  _Loglist
                    0x134b                  _LogIntStopTime
                    0x138a                  _LogIntWhileLogging
                    0x13bc                  _Modbusaddress
                    0x13e1                  _ModbusaddressIS
                    0x13f2                  _Mainbattery
                    0x1400                  _MEMcleared
                    0x1410                  _MEMnotcleared
                    0x1424                  _MEMLOC
                    0x1436                  _MEMSTAT
                    0x144f                  _MinInterror
                    0x148d                  _Minscanerror
                    0x14c5                  _Modbus
                    0x14fc                  _Monitoralreadydisabled
                    0x151b                  _Monitoralreadyenabled
                    0x1539                  _Monitordisabled
                    0x1550                  _Monitorenabled
                    0x1566                  _Monitorstatus
                    0x159d                  _MS
                    0x15a1                  _MX
                    0x15c7                  _MXselect
                    0x1608                  _MUX1setupmenu
                    0x1626                  _MUX4setupmenu
                    0x164e                  _MUX8setupmenu
                    0x1676                  _MUX8Tsetupmenu
                    0x16a6                  _MUX16setupmenu
                    0x16cf                  _MUX32setupmenu
                    0x16f8                  _MUX32Tsetupmenu
                    0x1729                  _MUX1
                    0x1750                  _MUX4
                    0x1773                  _MUX8
                    0x179e                  _MUX8VW
                    0x17c1                  _MUX16
                    0x17e5                  _MUX32
                    0x1811                  _MUX32VW
                    0x1835                  _Nexttime2read
                    0x1849                  _nn
                    0x186f                  _Noarrays2display
                    0x188f                  _O
                    0x18b2                  _O0
                    0x18d6                  _O1
                    0x18f9                  _OD
                    0x1924                  _OE
                    0x194e                  _OTT
                    0x197f                  _OPT
                    0x19af                  _OP
                    0x19b3                  _or
                    0x19b6                  _PA
                    0x19be                  _PB
                    0x19c6                  _PC
                    0x19ce                  _Position
                    0x1a05                  _Poweron
                    0x1a1f                  _Poweroff
                    0x1a3a                  _Readings3_72K
                    0x1a50                  _Readings4_83K
                    0x1a66                  _Readings6_87K
                    0x1a7c                  _Readings11_86K
                    0x1a93                  _Readings14_5K
                    0x1aaa                  _Readings18_64K
                    0x1ac1                  _Readings29K
                    0x1ad8                  _Reset
                    0x1afc                  _RESET
                    0x1b23                  _Resetting
                    0x1b30                  _ResetComplete
                    0x1b3f                  _Rev
                    0x1b44                  _RnotAllowed
                    0x1b64                  _RUsure
                    0x1b77                  _RSN
                    0x1bac                  _RTC32KHZON
                    0x1bc1                  _RTC32KHZOFF
                    0x1bd7                  _saaaa
                    0x1c1b                  _sbbbb
                    0x1c5f                  _Scanint
                    0x1c9e                  _Scaninterval
                    0x1cae                  _scccc
                    0x1cf2                  _Seconds
                    0x1cfe                  _Setup
                    0x1d05                  _sffff
                    0x1d3c                  _Softwareversion
                    0x1d4f                  _soooo
                    0x1d81                  _Space
                    0x1d83                  _Startlog
                    0x1dbc                  _Stoplog
                    0x1df3                  _StopTimeNotAllowed
                    0x1e2a                  _sR
                    0x1e6f                  _SV
                    0x1e97                  _SwitchtoModbus
                    0x1eb8                  _Synch
                    0x1eea                  _Synchnot
                    0x1f20                  _SystemStatus
                    0x1f58                  _szzzz
                    0x1f90                  _t
                    0x1fc3                  _tt
                    0x1fdb                  _Tab
                    0x1fdf                  _TF
                    0x2012                  _TH
                    0x2017                  _TherminfoWhere
                    0x2036                  _THREEV
                    0x204c                  _TWELVEV
                    0x2063                  _ThisWillLoadDefaults
                    0x2090                  _Time
                    0x209a                  _Timeformat
                    0x20af                  _Timeformatcomma
                    0x20c5                  _TM1
                    0x20d5                  _TM2
                    0x20ec                  _TM4
                    0x2104                  _TM9
                    0x2116                  _TM10
                    0x2129                  _TM11
                    0x2140                  _TM5
                    0x215d                  _TM12
                    0x216e                  _TM13
                    0x218a                  _Tnn
                    0x21c0                  _TnotAllowed
                    0x21e9                  _TP
                    0x21f5                  _TFAIL
                    0x2204                  _TR
                    0x223f                  _Trapcount
                    0x224c                  __5VEXCON
                    0x225b                  __5VEXCOFF
                    0x226b                  __VWON1
                    0x229d                  __VWON2
                    0x22cf                  __VWON3
                    0x2300                  __VWON4
                    0x2332                  __VWON5
                    0x2364                  __VWON6
                    0x2395                  __VWOFF
                    0x23a5                  __selectGT
                    0x23d3                  __wrong
                    0x23e9                  _UP
                    0x23ed                  _Viewclock
                    0x2417                  _VL
                    0x243f                  _VTHREE
                    0x2465                  _VTWELVE
                    0x248d                  _VWTimeout
                    0x24a2                  _WF
                    0x24e7                  _XCMD
                    0x251a                  _ZR
                    0x2522                  _oscfail
                    0x253f                  _trapr
                    0x2563                  _iopuwr
                    0x25a7                  _extr
                    0x25d0                  _swr
                    0x25f7                  _wdto
                    0x2611                  _sleep
                    0x2630                  _bor
                    0x2650                  _por
                    0x2694                  _VWflags
                    0x2696                  _VWflagsbits
                    0x2698                  _FRAM_MEMORY
                    0x269a                  _DISPLAY_CONTROL
                    0x269c                  _LC2CONTROL
                    0x269e                  _LC2CONTROL2
                    0x26a0                  _MUX4_ENABLE
                    0x26a2                  _MUX_ENABLE1_16
                    0x26a4                  _MUX_ENABLE17_32
                    0x26a6                  _THMUX_ENABLE1_16
                    0x26a8                  _THMUX_ENABLE17_32
                    0x26aa                  _MUX_CONVERSION1_16
                    0x26ae                  _MUX_CONVERSION17_32
                    0x26b2                  _PORT_CONTROL
                    0x26b4                  _DEC_TEMP
                    0x26b6                  _DEC_VWF
                    0x26b8                  _SN_BITS
                    0x26ba                  _S_1
                    0x26bc                  _S_2
                    0x26be                  _MODBUS_RXbuf
                    0x273c                  _MODBUS_TXbuf
                    0x27ba                  _TxBinaryBUF
                    0x2852                  __SNbuf
                    0x285c                  _buffer
                    0x2890                  _NABUF
                    0x2897                  _DS3231Integer
                    0x2898                  _DS3231Fraction
                    0x2899                  _intSource
                    0x289a                  _temp
                    0x289b                  _ModbusTestIdx
                    0x289c                  _MSB
                    0x289d                  _MMSB
                    0x289e                  _MMMSB
                    0x289f                  _LSB
                    0x28a0                  _tempBUF
                    0x28aa                  _testBUF
                    0x28be                  _trapBUF
                    0x28c4                  _Thermtype
                    0x28c5                  _BCDones
                    0x28c6                  _BCDtens
                    0x28c7                  _BCDhundreds
                    0x28c8                  _BCDthousands
                    0x28c9                  _BCDtenthousands
                    0x28ca                  _Hbyte
                    0x28cb                  _Lbyte
                    0x28cc                  _RTCdata
                    0x28cd                  _RTCmonths
                    0x28ce                  _RTCdays
                    0x28cf                  _RTCyears
                    0x28d0                  _RTChours
                    0x28d1                  _RTCminutes
                    0x28d2                  _RTCseconds
                    0x28d3                  _LoggingStartDays
                    0x28d4                  _who
                    0x28d6                  _F
                    0x28d8                  _cap_high
                    0x28da                  _VW_period_buffer
                    0x28dc                  _data
                    0x28de                  _julian
                    0x28e0                  _StopTime
                    0x28e2                  _year
                    0x28e4                  _month
                    0x28e6                  _day
                    0x28e8                  _DayOfWeek
                    0x28ea                  _hour
                    0x28ec                  _LoggingStartDay
                    0x28ee                  _minute
                    0x28f0                  _second
                    0x28f2                  _Analogreading
                    0x28f4                  _extThermreading
                    0x28f6                  _intThermreading
                    0x28f8                  _lithBatreading
                    0x28fa                  _mainBatreading
                    0x28fc                  _tempTMR4
                    0x28fe                  _tempTMR5
                    0x2900                  _trap
                    0x2902                  _RxData
                    0x2904                  _MODBUSaddressvalue
                    0x2906                  _percent
                    0x290a                  _processedReading
                    0x290e                  _LogIntLength1
                    0x2912                  _LogIntLength2
                    0x2916                  _LogIntLength3
                    0x291a                  _LogIntLength4
                    0x291e                  _LogIntLength5
                    0x2922                  _LogIntLength6
                    0x2926                  _LogIt1
                    0x2928                  _LogIt2
                    0x292a                  _LogIt3
                    0x292c                  _LogIt4
                    0x292e                  _LogIt5
                    0x2930                  _LogIt6
                    0x2932                  _validRTC
                    0x2934                  _VWcountLSW
                    0x2938                  _VWcountMSW
                    0x293c                  _baudrate
                    0x293e                  _LogItRemain1
                    0x2940                  _LogItRemain2
                    0x2942                  _LogItRemain3
                    0x2944                  _LogItRemain4
                    0x2946                  _LogItRemain5
                    0x2948                  _LogItRemain6
                    0x294a                  _tempUserPosition
                    0x294c                  _CaptureFlag
                    0x294e                  _gageType
                    0x2950                  _NAdata
                    0x2952                  _stopTimeTest
                    0x2954                  _testScanInterval
                    0x2956                  _ScanInterval
                    0x295a                  _timer23_value
                    0x295e                  _TotalStartSeconds
                    0x2962                  _TotalStopSeconds
                    0x2966                  _seconds_since_midnight
                    0x296a                  _TESTSECONDS
                    0x296e                  _LoggingStopHours
                    0x2972                  _LoggingStopMinutes
                    0x2976                  _LoggingStopSeconds
                    0x297a                  _PortOffHours
                    0x297b                  _PortOffMinutes
                    0x297c                  _PortOnHours
                    0x297d                  _PortOnMinutes
                    0x297e                  _memoryStatus
                    0x2982                  _outputPosition
                    0x2986                  _userPosition
                    0x298a                  _zeroReading
                    0x298e                  _gageOffset
                    0x2992                  _Lithiumreading
                    0x2996                  _VWreading
                    0x299a                  _VWreadingProcessed
                    0x299e                  _gageReading
                    0x29a2                  _batteryReading
                    0x29a6                  _BCDone
                    0x29a7                  _BCDten
                    0x29a8                  _BCDtwenty
                    0x29a9                  _BCDthirty
                    0x29aa                  _BCDforty
                    0x29ab                  _BCDfifty
                    0x29ac                  _BCDsixty
                    0x29ad                  _BCDseventy
                    0x29ae                  _BCDeighty
                    0x29af                  _BCDninety
                    0x29b0                  _decimalRTC
                    0x2a46                  _config2read
                    0x2a48                  _config2write
                    0x2a58                  _add
                    0x2a5c                  _NackTest
                    0x2a5d                  _TEST

External Symbols in Data Memory (by name):

                    0x0890                  _AllChannelsLoaded
                    0x28f2                  _Analogreading
                    0x29ae                  _BCDeighty
                    0x29ab                  _BCDfifty
                    0x29aa                  _BCDforty
                    0x28c7                  _BCDhundreds
                    0x29af                  _BCDninety
                    0x29a6                  _BCDone
                    0x28c5                  _BCDones
                    0x29ad                  _BCDseventy
                    0x29ac                  _BCDsixty
                    0x29a7                  _BCDten
                    0x28c6                  _BCDtens
                    0x28c9                  _BCDtenthousands
                    0x29a9                  _BCDthirty
                    0x28c8                  _BCDthousands
                    0x29a8                  _BCDtwenty
                    0x08c3                  _BT
                    0x08ec                  _BT0
                    0x0916                  _BT1
                    0x093f                  _BTD
                    0x09bb                  _BTDisablenotAllowed
                    0x096f                  _BTE
                    0x099e                  _BTOFF
                    0x09ad                  _BTON
                    0x09ec                  _BTR
                    0x0a2b                  _BTTIMERDIS
                    0x0a13                  _BTTIMEREN
                    0x08b6                  _Blankarray
                    0x0878                  _C0
                    0x087c                  _C1
                    0x0880                  _C2
                    0x0884                  _C3
                    0x0888                  _C4
                    0x088c                  _C5
                    0x0a83                  _CH1
                    0x0ac2                  _CH10
                    0x0aca                  _CH11
                    0x0ad2                  _CH12
                    0x0ada                  _CH13
                    0x0ae2                  _CH14
                    0x0aea                  _CH15
                    0x0af2                  _CH16
                    0x0afa                  _CH17
                    0x0b02                  _CH18
                    0x0b0a                  _CH19
                    0x0a8a                  _CH2
                    0x0b12                  _CH20
                    0x0b1a                  _CH21
                    0x0b22                  _CH22
                    0x0b2a                  _CH23
                    0x0b32                  _CH24
                    0x0b3a                  _CH25
                    0x0b42                  _CH26
                    0x0b4a                  _CH27
                    0x0b52                  _CH28
                    0x0b5a                  _CH29
                    0x0a91                  _CH3
                    0x0b62                  _CH30
                    0x0b6a                  _CH31
                    0x0b72                  _CH32
                    0x0a98                  _CH4
                    0x0a9f                  _CH5
                    0x0aa6                  _CH6
                    0x0aad                  _CH7
                    0x0ab4                  _CH8
                    0x0abb                  _CH9
                    0x0c01                  _CPOFF
                    0x0c13                  _CPON
                    0x0c24                  _CPTIMERACT
                    0x0c37                  _CPTIMERDEACT
                    0x0c68                  _CPTIMERDIS
                    0x0c4c                  _CPTIMEREN
                    0x0a66                  _Calclock
                    0x294c                  _CaptureFlag
                    0x0b7a                  _Clockset
                    0x0b9b                  _CnotAllowed
                    0x0bca                  _CommandDescription
                    0x0bed                  _ConfigureChannel
                    0x26b4                  _DEC_TEMP
                    0x26b6                  _DEC_VWF
                    0x0d5d                  _DF
                    0x269a                  _DISPLAY_CONTROL
                    0x0e0d                  _DL
                    0x2898                  _DS3231Fraction
                    0x2897                  _DS3231Integer
                    0x0c85                  _Dashes
                    0x0cb6                  _DataloggerID
                    0x0cc5                  _Date
                    0x0ccc                  _Datejulian
                    0x0ce3                  _Datemonthday
                    0x28e8                  _DayOfWeek
                    0x0cfd                  _Default
                    0x0d32                  _DefaultsNotLoaded
                    0x0d96                  _Disabled
                    0x0d9f                  _DisabledDisplay
                    0x0da3                  _Displaynext
                    0x0dd4                  _Displaynnnn
                    0x0e28                  _DnotAllowed
                    0x0e4a                  _Enabled
                    0x0e52                  _End
                    0x0e8c                  _Error
                    0x0e92                  _Errors
                    0x0ea6                  _Escape
                    0x0ebd                  _ExtInOff
                    0x0f05                  _Exttemp
                    0x28d6                  _F
                    0x2698                  _FRAM_MEMORY
                    0x0fc2                  _GF
                    0x0fca                  _GO
                    0x0fd2                  _GT
                    0x0f67                  _GageinfoWhere
                    0x0f80                  _GageinformationA
                    0x0fa1                  _GageinformationZ
                    0x28ca                  _Hbyte
                    0x0fd7                  _Hello
                    0x0ff0                  _Hightemp1
                    0x100e                  _Hightemp2
                    0x102e                  _Hightemp3
                    0x104b                  _ID
                    0x108a                  _Interval
                    0x1095                  _Inttemp
                    0x10ab                  _Iterations
                    0x269c                  _LC2CONTROL
                    0x269e                  _LC2CONTROL2
                    0x10ec                  _LCfour
                    0x1109                  _LCfourbyeightTH
                    0x1100                  _LCfourbyeightVW
                    0x10f1                  _LCfourbyfour
                    0x10f8                  _LCfourbysixteen
                    0x111c                  _LCfourbythirtytwoTH
                    0x1112                  _LCfourbythirtytwoVW
                    0x289f                  _LSB
                    0x28cb                  _Lbyte
                    0x1126                  _Length
                    0x1163                  _LithiumVoltage
                    0x1155                  _Lithiumcell
                    0x2992                  _Lithiumreading
                    0x117b                  _Log
                    0x081c                  _LogIntLength
                    0x290e                  _LogIntLength1
                    0x2912                  _LogIntLength2
                    0x2916                  _LogIntLength3
                    0x291a                  _LogIntLength4
                    0x291e                  _LogIntLength5
                    0x2922                  _LogIntLength6
                    0x134b                  _LogIntStopTime
                    0x138a                  _LogIntWhileLogging
                    0x2926                  _LogIt1
                    0x2928                  _LogIt2
                    0x292a                  _LogIt3
                    0x292c                  _LogIt4
                    0x292e                  _LogIt5
                    0x2930                  _LogIt6
                    0x293e                  _LogItRemain1
                    0x2940                  _LogItRemain2
                    0x2942                  _LogItRemain3
                    0x2944                  _LogItRemain4
                    0x2946                  _LogItRemain5
                    0x2948                  _LogItRemain6
                    0x11b4                  _Logdisabled
                    0x11cc                  _Logdisenable
                    0x1201                  _Logenabled
                    0x28ec                  _LoggingStartDay
                    0x28d3                  _LoggingStartDays
                    0x296e                  _LoggingStopHours
                    0x2972                  _LoggingStopMinutes
                    0x2976                  _LoggingStopSeconds
                    0x1218                  _Loggingalreadystarted
                    0x1231                  _Loggingalreadystopped
                    0x124a                  _Loggingstarted
                    0x125b                  _Loggingstopped
                    0x12c1                  _Loggingwillnotstopmemfull
                    0x126c                  _Loggingwillstart
                    0x1284                  _Loggingwillstop
                    0x129b                  _Loggingwillstopmemfull
                    0x12eb                  _Logintalreadydisabled
                    0x130b                  _Logintalreadyenabled
                    0x132a                  _Loglist
                    0x1424                  _MEMLOC
                    0x1436                  _MEMSTAT
                    0x1400                  _MEMcleared
                    0x1410                  _MEMnotcleared
                    0x289e                  _MMMSB
                    0x289d                  _MMSB
                    0x26be                  _MODBUS_RXbuf
                    0x273c                  _MODBUS_TXbuf
                    0x2904                  _MODBUSaddressvalue
                    0x159d                  _MS
                    0x289c                  _MSB
                    0x1729                  _MUX1
                    0x17c1                  _MUX16
                    0x16a6                  _MUX16setupmenu
                    0x1608                  _MUX1setupmenu
                    0x17e5                  _MUX32
                    0x16f8                  _MUX32Tsetupmenu
                    0x1811                  _MUX32VW
                    0x16cf                  _MUX32setupmenu
                    0x1750                  _MUX4
                    0x26a0                  _MUX4_ENABLE
                    0x1626                  _MUX4setupmenu
                    0x1773                  _MUX8
                    0x1676                  _MUX8Tsetupmenu
                    0x179e                  _MUX8VW
                    0x164e                  _MUX8setupmenu
                    0x26ae                  _MUX_CONVERSION17_32
                    0x26aa                  _MUX_CONVERSION1_16
                    0x26a4                  _MUX_ENABLE17_32
                    0x26a2                  _MUX_ENABLE1_16
                    0x15a1                  _MX
                    0x15c7                  _MXselect
                    0x13f2                  _Mainbattery
                    0x144f                  _MinInterror
                    0x148d                  _Minscanerror
                    0x14c5                  _Modbus
                    0x289b                  _ModbusTestIdx
                    0x13bc                  _Modbusaddress
                    0x13e1                  _ModbusaddressIS
                    0x14fc                  _Monitoralreadydisabled
                    0x151b                  _Monitoralreadyenabled
                    0x1539                  _Monitordisabled
                    0x1550                  _Monitorenabled
                    0x1566                  _Monitorstatus
                    0x2890                  _NABUF
                    0x2950                  _NAdata
                    0x2a5c                  _NackTest
                    0x1835                  _Nexttime2read
                    0x186f                  _Noarrays2display
                    0x188f                  _O
                    0x18b2                  _O0
                    0x18d6                  _O1
                    0x18f9                  _OD
                    0x1924                  _OE
                    0x19af                  _OP
                    0x197f                  _OPT
                    0x194e                  _OTT
                    0x19b6                  _PA
                    0x19be                  _PB
                    0x19c6                  _PC
                    0x26b2                  _PORT_CONTROL
                    0x297a                  _PortOffHours
                    0x297b                  _PortOffMinutes
                    0x297c                  _PortOnHours
                    0x297d                  _PortOnMinutes
                    0x19ce                  _Position
                    0x1a1f                  _Poweroff
                    0x1a05                  _Poweron
                    0x1afc                  _RESET
                    0x1b77                  _RSN
                    0x1bc1                  _RTC32KHZOFF
                    0x1bac                  _RTC32KHZON
                    0x28cc                  _RTCdata
                    0x28ce                  _RTCdays
                    0x28d0                  _RTChours
                    0x28d1                  _RTCminutes
                    0x28cd                  _RTCmonths
                    0x28d2                  _RTCseconds
                    0x28cf                  _RTCyears
                    0x1b64                  _RUsure
                    0x1a7c                  _Readings11_86K
                    0x1a93                  _Readings14_5K
                    0x1aaa                  _Readings18_64K
                    0x1ac1                  _Readings29K
                    0x1a3a                  _Readings3_72K
                    0x1a50                  _Readings4_83K
                    0x1a66                  _Readings6_87K
                    0x1ad8                  _Reset
                    0x1b30                  _ResetComplete
                    0x1b23                  _Resetting
                    0x1b3f                  _Rev
                    0x1b44                  _RnotAllowed
                    0x2902                  _RxData
                    0x26b8                  _SN_BITS
                    0x1e6f                  _SV
                    0x26ba                  _S_1
                    0x26bc                  _S_2
                    0x2956                  _ScanInterval
                    0x1c5f                  _Scanint
                    0x1c9e                  _Scaninterval
                    0x1cf2                  _Seconds
                    0x1cfe                  _Setup
                    0x1d3c                  _Softwareversion
                    0x1d81                  _Space
                    0x1d83                  _Startlog
                    0x28e0                  _StopTime
                    0x1df3                  _StopTimeNotAllowed
                    0x1dbc                  _Stoplog
                    0x1e97                  _SwitchtoModbus
                    0x1eb8                  _Synch
                    0x1eea                  _Synchnot
                    0x1f20                  _SystemStatus
                    0x2a5d                  _TEST
                    0x296a                  _TESTSECONDS
                    0x1fdf                  _TF
                    0x21f5                  _TFAIL
                    0x2012                  _TH
                    0x26a8                  _THMUX_ENABLE17_32
                    0x26a6                  _THMUX_ENABLE1_16
                    0x2036                  _THREEV
                    0x20c5                  _TM1
                    0x2116                  _TM10
                    0x2129                  _TM11
                    0x215d                  _TM12
                    0x216e                  _TM13
                    0x20d5                  _TM2
                    0x20ec                  _TM4
                    0x2140                  _TM5
                    0x2104                  _TM9
                    0x21e9                  _TP
                    0x2204                  _TR
                    0x204c                  _TWELVEV
                    0x1fdb                  _Tab
                    0x2017                  _TherminfoWhere
                    0x28c4                  _Thermtype
                    0x2063                  _ThisWillLoadDefaults
                    0x2090                  _Time
                    0x0822                  _TimeOut
                    0x209a                  _Timeformat
                    0x20af                  _Timeformatcomma
                    0x218a                  _Tnn
                    0x21c0                  _TnotAllowed
                    0x295e                  _TotalStartSeconds
                    0x2962                  _TotalStopSeconds
                    0x223f                  _Trapcount
                    0x27ba                  _TxBinaryBUF
                    0x23e9                  _UP
                    0x0820                  _V0_5
                    0x081a                  _VAGC_MIN
                    0x2417                  _VL
                    0x243f                  _VTHREE
                    0x2465                  _VTWELVE
                    0x248d                  _VWTimeout
                    0x28da                  _VW_period_buffer
                    0x2934                  _VWcountLSW
                    0x2938                  _VWcountMSW
                    0x2694                  _VWflags
                    0x2696                  _VWflagsbits
                    0x2996                  _VWreading
                    0x299a                  _VWreadingProcessed
                    0x23ed                  _Viewclock
                    0x0850                  _Vref
                    0x24a2                  _WF
                    0x24e7                  _XCMD
                    0x251a                  _ZR
                    0x225b                  __5VEXCOFF
                    0x224c                  __5VEXCON
                    0x2852                  __SNbuf
                    0x2395                  __VWOFF
                    0x226b                  __VWON1
                    0x229d                  __VWON2
                    0x22cf                  __VWON3
                    0x2300                  __VWON4
                    0x2332                  __VWON5
                    0x2364                  __VWON6
                    0x23a5                  __selectGT
                    0x23d3                  __wrong
                    0x2a58                  _add
                    0x0854                  _bat_12LOW
                    0x0860                  _bat_12MIN
                    0x0858                  _bat_3LOW
                    0x085c                  _bat_3MIN
                    0x29a2                  _batteryReading
                    0x293c                  _baudrate
                    0x2630                  _bor
                    0x285c                  _buffer
                    0x0a44                  _c
                    0x28d8                  _cap_high
                    0x2a46                  _config2read
                    0x2a48                  _config2write
                    0x28dc                  _data
                    0x28e6                  _day
                    0x29b0                  _decimalRTC
                    0x28f4                  _extThermreading
                    0x25a7                  _extr
                    0x0f1b                  _forLinear
                    0x0f3f                  _forPoly
                    0x0868                  _gageFactor
                    0x298e                  _gageOffset
                    0x299e                  _gageReading
                    0x294e                  _gageType
                    0x0802                  _gain
                    0x28ea                  _hour
                    0x2899                  _intSource
                    0x28f6                  _intThermreading
                    0x2563                  _iopuwr
                    0x10b8                  _iterations
                    0x28de                  _julian
                    0x112f                  _length
                    0x28f8                  _lithBatreading
                    0x0830                  _mS128
                    0x083c                  _mS16
                    0x082c                  _mS256
                    0x0838                  _mS32
                    0x0828                  _mS512
                    0x0834                  _mS64
                    0x0840                  _mS8
                    0x28fa                  _mainBatreading
                    0x080e                  _maxEightTH
                    0x0808                  _maxEightVW
                    0x0806                  _maxFourVW
                    0x0804                  _maxSingleVW
                    0x080a                  _maxSixteenVW
                    0x0810                  _maxThirtytwoTH
                    0x080c                  _maxThirtytwoVW
                    0x297e                  _memoryStatus
                    0x0817                  _minScanEightTH
                    0x0814                  _minScanEightVW
                    0x0813                  _minScanFourVW
                    0x0812                  _minScanSingleVW
                    0x0815                  _minScanSixteenVW
                    0x0818                  _minScanThirtytwoTH
                    0x0816                  _minScanThirtytwoVW
                    0x28ee                  _minute
                    0x28e4                  _month
                    0x0848                  _mul12V
                    0x0844                  _mul3V
                    0x084c                  _mullith3V
                    0x1849                  _nn
                    0x19b3                  _or
                    0x2522                  _oscfail
                    0x2982                  _outputPosition
                    0x0867                  _passwordbyte0
                    0x0866                  _passwordbyte1
                    0x0865                  _passwordbyte2
                    0x0864                  _passwordbyte3
                    0x2906                  _percent
                    0x086c                  _polyCoA
                    0x0870                  _polyCoB
                    0x0874                  _polyCoC
                    0x2650                  _por
                    0x290a                  _processedReading
                    0x1e2a                  _sR
                    0x1bd7                  _saaaa
                    0x1c1b                  _sbbbb
                    0x1cae                  _scccc
                    0x28f0                  _second
                    0x2966                  _seconds_since_midnight
                    0x1d05                  _sffff
                    0x2611                  _sleep
                    0x1d4f                  _soooo
                    0x2952                  _stopTimeTest
                    0x25d0                  _swr
                    0x1f58                  _szzzz
                    0x1f90                  _t
                    0x0824                  _tcy
                    0x289a                  _temp
                    0x28a0                  _tempBUF
                    0x28fc                  _tempTMR4
                    0x28fe                  _tempTMR5
                    0x294a                  _tempUserPosition
                    0x28aa                  _testBUF
                    0x2954                  _testScanInterval
                    0x295a                  _timer23_value
                    0x2900                  _trap
                    0x28be                  _trapBUF
                    0x253f                  _trapr
                    0x1fc3                  _tt
                    0x2986                  _userPosition
                    0x2932                  _validRTC
                    0x25f7                  _wdto
                    0x28d4                  _who
                    0x28e2                  _year
                    0x298a                  _zeroReading

External Symbols in Program Memory (by address):

                  0x000000                  _FSS
                  0x000000                  _FGS
                  0x000000                  _FBS
                  0x000200                  __resetPRI
                  0x00022c                  __psv_init
                  0x00023c                  __data_init_standard
                  0x00023c                  __data_init
                  0x0002ac                  __DefaultInterrupt
                  0x0002b0                  _CloseI2C1
                  0x0002bc                  _CloseI2C2
                  0x0002c8                  _IdleI2C1
                  0x0002e2                  _IdleI2C2
                  0x0002fc                  _MasterReadI2C1
                  0x000308                  _MasterReadI2C2
                  0x000314                  _MasterWriteI2C1
                  0x000330                  _MasterWriteI2C2
                  0x00034c                  _NotAckI2C1
                  0x000352                  _OpenI2C1
                  0x000358                  _OpenI2C2
                  0x00035e                  _RestartI2C1
                  0x000362                  _StartI2C1
                  0x000366                  _StartI2C2
                  0x00036a                  _StopI2C1
                  0x00036e                  _StopI2C2
                  0x000372                  _CloseOC1
                  0x00037c                  _isWDTTO
                  0x000386                  _CloseTimer23
                  0x000392                  _CloseTimer3
                  0x00039a                  _ConfigIntTimer89
                  0x0003bc                  _OpenTimer3
                  0x0003c4                  _OpenTimer89
                  0x0003d2                  _WriteTimer3
                  0x0003d6                  _WriteTimer89
                  0x0003dc                  _BusyUART1
                  0x0003e6                  _ConfigIntUART1
                  0x00042e                  _DataRdyUART1
                  0x000434                  _OpenUART1
                  0x00043c                  _putsUART1
                  0x000464                  _ReadUART1
                  0x000476                  _WriteUART1
                  0x000484                  _ConfigINT1
                  0x0004b8                  ___subsf3
                  0x0004ba                  ___addsf3
                  0x000574                  ___divsf3
                  0x0005f8                  ___lesf2
                  0x0005f8                  ___eqsf2
                  0x0005f8                  ___ltsf2
                  0x0005fc                  ___gesf2
                  0x0005fc                  ___gtsf2
                  0x000600                  ___fixsfsi
                  0x000642                  ___fixunssfsi
                  0x000678                  ___floatsisf
                  0x00067e                  ___floatunsisf
                  0x000682                  ___nesf2
                  0x000686                  __fpack
                  0x0006d2                  __funpack
                  0x0006fc                  __funpack2
                  0x00070c                  __fPropagateNaN
                  0x00071e                  __fbopExit
                  0x000726                  __fbopReturnNaN
                  0x00072c                  _logf
                  0x0007da                  ___mulsf3
                  0x000842                  ___umodsi3
                  0x000848                  __frexpf
                  0x000862                  __fcompare
                  0x000898                  ___floatdisf
                  0x0008b8                  ___floatundisf
                  0x000916                  ___udivsi3
                  0x000936                  _isalpha
                  0x00094a                  _isgraph
                  0x000956                  sprintf_cdfFnopuxX.XXeo:_prout
                  0x000964                  __sprintf_cdnopuxX
                  0x000964                  __sprintf_cdfFnopuxX
                  0x000982                  ___Printf_cdfFnopuxX
                  0x000982                  ___Printf_cdnopuxX
                  0x000ae6                  ___Putfld_cdnopuxX
                  0x000ae6                  ___Putfld_cdfFnopuxX
                  0x000d7c                  ___Ldtob_cdfFnopuxX
                  0x000fcc                  ___Genld_cdfFnopuxX
                  0x0011d4                  _div
                  0x0011ea                  _ldiv
                  0x001214                  _memcpy
                  0x001222                  _strchr
                  0x00123a                  __LDunscale
                  0x00128e                  __Litob
                  0x0014ec                  __Puttxt
                  0x001664                  __Vacopy
                  0x001668                  __Dnorm
                  0x001700                  ___ltdf2
                  0x001700                  ___eqdf2
                  0x001700                  ___ledf2
                  0x00170a                  ___gedf2
                  0x00170a                  ___gtdf2
                  0x001714                  ___divdf3
                  0x0017c8                  ___divsi3
                  0x0017e6                  __dpack
                  0x00183e                  __dunpack2
                  0x001860                  __dreturnNaN
                  0x001866                  __dunpack2exit
                  0x001870                  ___extendsfdf2
                  0x0018ae                  ___fixdfsi
                  0x001906                  ___floatsidf
                  0x00190c                  ___muldf3
                  0x0019f6                  ___subdf3
                  0x0019fa                  ___mulp32peds3
                  0x0019fa                  ___mulp32eds3
                  0x0019fa                  ___mulsi3
                  0x001a52                  ___udivmoddi3
                  0x001b38                  ___udivdi3
                  0x001b46                  ___umoddi3
                  0x001b4e                  ___divdi3
                  0x001bae                  ___moddi3
                  0x001c0a                  ___adddf3
                  0x001d04                  __dcompare
                  0x001d56                  __dPropagateNaN
                  0x001d72                  __dtype
                  0x001d96                  __dunpack
                  0x001de4                  ___floatdidf
                  0x001e04                  ___floatundidf
                  0x001e5a                  _main
                  0x0021c4                  __3VX_on
                  0x0021da                  __3VX_off
                  0x0021f2                  _bcd2d
                  0x0022f0                  _Blink
                  0x00233e                  _BT_D
                  0x00236c                  _BT_E
                  0x0023ae                  _BT_R
                  0x002438                  _BTStatus
                  0x002608                  _BTONE
                  0x00263a                  _BTZERO
                  0x002676                  _Buf2DateTime
                  0x00314e                  _Buffer2Decimal
                  0x003356                  _Buf2GageData
                  0x00386c                  _checkScanInterval
                  0x003a68                  _checkSynch
                  0x003b2a                  _clockMux
                  0x003b52                  _clockThMux
                  0x003b66                  _CMDcomm
                  0x00719a                  _CMD_LINE
                  0x0071b6                  _configMODBUStimers
                  0x007242                  _configShutdownTimer
                  0x007254                  _configTimers
                  0x007286                  _configUARTnormal
                  0x0072c8                  _controlPortStatus
                  0x007498                  _CRC
                  0x00751c                  _CRC_SN
                  0x00757c                  _crlf
                  0x0075a2                  _debounce
                  0x0075c0                  _disableAlarm
                  0x00761c                  _disableBT
                  0x007674                  _disableChannel
                  0x007800                  _disableTHChannel
                  0x00798c                  _disableINT1
                  0x007996                  _disableOP
                  0x0079e2                  _DISLOGINT
                  0x007a0c                  _disableTimers
                  0x007a1a                  _disableVWchannel
                  0x007a38                  _displayBCD
                  0x007a8e                  _displayClock
                  0x007bca                  _displayFRAMError
                  0x007c06                  _displayGageInfo
                  0x0087f4                  _displayLoggingWillStart
                  0x008854                  _displayLoggingWillStop
                  0x0088c6                  _displayLogInterval
                  0x008a96                  _displayLogTable
                  0x008ad6                  _displayMemoryStatus
                  0x008bea                  _displayMUX
                  0x00a0d6                  _displayReading
                  0x00cb16                  _displayScanInterval
                  0x00cb5a                  _displayTempReading
                  0x0100ae                  _displayTemporaryStatus
                  0x0101fa                  _displayTestMenu
                  0x0102ac                  _enableAlarm
                  0x01033a                  _enableBT
                  0x01036c                  _enableChannel
                  0x0104f0                  _enableTHChannel
                  0x010674                  _enableINT1
                  0x010680                  _ENLOGINT
                  0x0106bc                  _enableOP
                  0x0106fe                  _f32toINT16
                  0x010814                  _enableVWchannel
                  0x01097c                  _filterArray
                  0x010a2c                  _formatandDisplayGageInfo
                  0x010e3e                  _getChannel
                  0x010e9a                  _getSNbytes
                  0x0110c0                  _getConversion
                  0x011174                  _getGageInfo
                  0x012648                  _getGageType
                  0x01271a                  _getLogInterval
                  0x01277a                  _getLogIntLength
                  0x012bea                  _getLogIterations
                  0x012de4                  _getFrequency
                  0x012f94                  _getSerialNumber
                  0x01307c                  _getThermtype
                  0x0130f0                  _getTxChecksum
                  0x01312e                  _handleCOMError
                  0x01313a                  _handleFRAMResults
                  0x01316e                  _hms
                  0x013296                  _hms2s
                  0x0132fa                  _INT16tof32
                  0x013348                  _loadDefaults
                  0x013846                  _MODBUScheckScanInterval
                  0x01392c                  _MODBUScomm
                  0x0145a8                  _MODBUS_DisableStartTime
                  0x0145f0                  _MODBUS_EnableStartTime
                  0x01469a                  _MODBUS_DisableStopTime
                  0x0146d6                  _MODBUS_EnableStopTime
                  0x0146de                  _MODBUS_RX
                  0x01480c                  _MODBUS_TX
                  0x014876                  _MX1
                  0x0148f0                  _MX4
                  0x01493c                  _MX8
                  0x014988                  _MX8T
                  0x0149d4                  _MX16
                  0x014a20                  _MX32
                  0x014a6c                  _MX32T
                  0x014ab8                  _O_D
                  0x014ae6                  _O_E
                  0x014b28                  _pack
                  0x014b46                  _pluck
                  0x014ca0                  _pluckOFF
                  0x014cb0                  _pluckON
                  0x014cce                  _pluckPOS
                  0x014cd8                  _pluckNEG
                  0x014ce2                  _processDS3231Temperature
                  0x014d02                  _processReading
                  0x01511c                  _prompt
                  0x015152                  _readClock
                  0x01528a                  _readDS3231temperature
                  0x0152b8                  _R
                  0x0152f0                  _READ_TIME
                  0x0154e6                  _ReadSN
                  0x0155a6                  _RST
                  0x0155c0                  _read_vw
                  0x01562e                  _reloadLogTable
                  0x015666                  _resetMemory
                  0x0156bc                  _restoreSettings
                  0x01576e                  _RTChms2s
                  0x015854                  _RTCtoDecimal
                  0x01590a                  _seconds2hms
                  0x01595a                  _setADCsleep
                  0x015976                  _setADCwake
                  0x015988                  _setChannelConversion
                  0x015d0c                  _setChannelThermtype
                  0x015f80                  _setClock
                  0x01610e                  _setup
                  0x016234                  _shutdown
                  0x0162b8                  _start32KHz
                  0x0162cc                  _startLogging
                  0x016466                  _START
                  0x016578                  _stop32KHz
                  0x016592                  _stopLogging
                  0x01674e                  _STOP
                  0x016822                  _STOPTIME
                  0x016998                  _storeGageType
                  0x0169be                  _storeLogInterval
                  0x016aec                  _storeChannelReading
                  0x016cbe                  _storeReading
                  0x017458                  _storeTempChannelReading
                  0x01752a                  _storeTempChannelTHReading
                  0x01754e                  _storeTempReading
                  0x017592                  _synch
                  0x0175f0                  _synch_one
                  0x017674                  _synch_zero
                  0x0176f8                  _take_analog_reading
                  0x01783c                  _take_fast_analog_reading
                  0x0178de                  _take_One_Complete_Reading
                  0x01969a                  _take_reading
                  0x0197e2                  _testPoint
                  0x01985c                  _testPoint2
                  0x019888                  _testReset
                  0x0199a4                  _toBCD
                  0x019ad4                  _toJulian
                  0x019bfa                  _toMonthDay
                  0x019f40                  _unpack
                  0x019f62                  _upD8RTCAlarm1
                  0x01a77c                  _V_HT2C
                  0x01a9dc                  _vwf32toINT16
                  0x01ab2a                  _wait
                  0x01ab52                  _wait2S
                  0x01ab80                  _wrap_one
                  0x01abb0                  _wrap_stop
                  0x01abca                  _wrap_zero
                  0x01abfa                  _WRITE_TIME
                  0x01acac                  _X
                  0x01acf2                  __INT0Interrupt
                  0x01ad06                  __IC1Interrupt
                  0x01ad1a                  __OC1Interrupt
                  0x01ad2e                  __T1Interrupt
                  0x01ad42                  __DMA0Interrupt
                  0x01ad56                  __IC2Interrupt
                  0x01ad6a                  __OC2Interrupt
                  0x01ad7e                  __T2Interrupt
                  0x01ad92                  __T3Interrupt
                  0x01ada6                  __SPI1Interrupt
                  0x01adba                  __U1TXInterrupt
                  0x01adce                  __ADC1Interrupt
                  0x01ade2                  __DMA1Interrupt
                  0x01adf6                  __SI2C1Interrupt
                  0x01ae0a                  __MI2C1Interrupt
                  0x01ae1e                  __CNInterrupt
                  0x01ae32                  __ADC2Interrupt
                  0x01ae46                  __IC7Interrupt
                  0x01ae5a                  __IC8Interrupt
                  0x01ae6e                  __DMA2Interrupt
                  0x01ae82                  __OC3Interrupt
                  0x01ae96                  __OC4Interrupt
                  0x01aeaa                  __T4Interrupt
                  0x01aebe                  __INT2Interrupt
                  0x01aed2                  __U2RXInterrupt
                  0x01aee6                  __U2TXInterrupt
                  0x01aefa                  __SPI2ErrInterrupt
                  0x01af0e                  __SPI2Interrupt
                  0x01af22                  __C1RxRdyInterrupt
                  0x01af36                  __C1Interrupt
                  0x01af4a                  __DMA3Interrupt
                  0x01af5e                  __IC3Interrupt
                  0x01af72                  __IC4Interrupt
                  0x01af86                  __IC5Interrupt
                  0x01af9a                  __IC6Interrupt
                  0x01afae                  __OC5Interrupt
                  0x01afc2                  __OC6Interrupt
                  0x01afd6                  __OC7Interrupt
                  0x01afea                  __OC8Interrupt
                  0x01affe                  __DMA4Interrupt
                  0x01b012                  __T6Interrupt
                  0x01b026                  __SI2C2Interrupt
                  0x01b03a                  __MI2C2Interrupt
                  0x01b04e                  __T8Interrupt
                  0x01b062                  __T9Interrupt
                  0x01b076                  __INT3Interrupt
                  0x01b08a                  __INT4Interrupt
                  0x01b09e                  __C2RxRdyInterrupt
                  0x01b0b2                  __C2Interrupt
                  0x01b0c6                  __DCIErrInterrupt
                  0x01b0da                  __DCIInterrupt
                  0x01b0ee                  __DMA5Interrupt
                  0x01b102                  __U1ErrInterrupt
                  0x01b116                  __U2ErrInterrupt
                  0x01b12a                  __DMA6Interrupt
                  0x01b13e                  __DMA7Interrupt
                  0x01b152                  __C1TxReqInterrupt
                  0x01b166                  __C2TxReqInterrupt
                  0x01b17a                  __AltINT0Interrupt
                  0x01b18e                  __AltIC1Interrupt
                  0x01b1a2                  __AltOC1Interrupt
                  0x01b1b6                  __AltT1Interrupt
                  0x01b1ca                  __AltDMA0Interrupt
                  0x01b1de                  __AltIC2Interrupt
                  0x01b1f2                  __AltOC2Interrupt
                  0x01b206                  __AltT2Interrupt
                  0x01b21a                  __AltT3Interrupt
                  0x01b22e                  __AltSPI1Interrupt
                  0x01b242                  __AltU1TXInterrupt
                  0x01b256                  __AltADC1Interrupt
                  0x01b26a                  __AltDMA1Interrupt
                  0x01b27e                  __AltSI2C1Interrupt
                  0x01b292                  __AltMI2C1Interrupt
                  0x01b2a6                  __AltCNInterrupt
                  0x01b2ba                  __AltADC2Interrupt
                  0x01b2ce                  __AltIC7Interrupt
                  0x01b2e2                  __AltIC8Interrupt
                  0x01b2f6                  __AltDMA2Interrupt
                  0x01b30a                  __AltOC3Interrupt
                  0x01b31e                  __AltOC4Interrupt
                  0x01b332                  __AltT4Interrupt
                  0x01b346                  __AltINT2Interrupt
                  0x01b35a                  __AltU2RXInterrupt
                  0x01b36e                  __AltU2TXInterrupt
                  0x01b382                  __AltSPI2ErrInterrupt
                  0x01b396                  __AltSPI2Interrupt
                  0x01b3aa                  __AltC1RxRdyInterrupt
                  0x01b3be                  __AltC1Interrupt
                  0x01b3d2                  __AltDMA3Interrupt
                  0x01b3e6                  __AltIC3Interrupt
                  0x01b3fa                  __AltIC4Interrupt
                  0x01b40e                  __AltIC5Interrupt
                  0x01b422                  __AltIC6Interrupt
                  0x01b436                  __AltOC5Interrupt
                  0x01b44a                  __AltOC6Interrupt
                  0x01b45e                  __AltOC7Interrupt
                  0x01b472                  __AltOC8Interrupt
                  0x01b486                  __AltDMA4Interrupt
                  0x01b49a                  __AltT6Interrupt
                  0x01b4ae                  __AltSI2C2Interrupt
                  0x01b4c2                  __AltMI2C2Interrupt
                  0x01b4d6                  __AltT8Interrupt
                  0x01b4ea                  __AltT9Interrupt
                  0x01b4fe                  __AltINT3Interrupt
                  0x01b512                  __AltINT4Interrupt
                  0x01b526                  __AltC2RxRdyInterrupt
                  0x01b53a                  __AltC2Interrupt
                  0x01b54e                  __AltDCIErrInterrupt
                  0x01b562                  __AltDCIInterrupt
                  0x01b576                  __AltDMA5Interrupt
                  0x01b58a                  __AltU1ErrInterrupt
                  0x01b59e                  __AltU2ErrInterrupt
                  0x01b5b2                  __AltDMA6Interrupt
                  0x01b5c6                  __AltDMA7Interrupt
                  0x01b5da                  __AltC1TxReqInterrupt
                  0x01b5ee                  __AltC2TxReqInterrupt
                  0x01b602                  __U1RXInterrupt
                  0x01b642                  __AltU1RXInterrupt
                  0x01b682                  __INT1Interrupt
                  0x01b9a6                  __AltINT1Interrupt
                  0x01bc98                  __OscillatorFail
                  0x01bcac                  __AltOscillatorFail
                  0x01bcc0                  __T5Interrupt
                  0x01bce2                  __AltT5Interrupt
                  0x01bd02                  __T7Interrupt
                  0x01bd22                  __AltT7Interrupt
                  0x01d24a                  _displayError
                  0x01d302                  _write_Int_FRAM
                  0x01d3c8                  _read_Int_FRAM
                  0x01d510                  _write_longFRAM
                  0x01d53a                  _read_longFRAM
                  0x01d564                  _read_float
                  0x01d58e                  _write_Flt_FRAM
                  0x01d6be                  _read_Flt_FRAM
                  0x01d8be                  _selectBank
                  0x01db4a                  _sleepFRAM
                  0x01dbfc                  _testFRAM
                  0x01e198                  _testNACK
                  0x01e1e4                  _read_AD5241
                  0x01e23e                  _write_AD5241
                  0x01e2a8                  _delay
                  0x01e2c0                  _shutdownTimer
                  0x01e316                  _shutdownTimerwithReset
                  0x01e354                  _StopshutdownTimer
                  0x01e35a                  ___delay32
                  0xf80000                  __FBS.sec
                  0xf80002                  __FSS.sec
                  0xf80004                  __FGS.sec
                  0xf80006                  _FOSCSEL
                  0xf80008                  _FOSC
                  0xf8000a                  _FWDT
                  0xf8000c                  _FPOR
                  0xf8000e                  _FICD

External Symbols in Program Memory (by name):

                  0x002608                  _BTONE
                  0x002438                  _BTStatus
                  0x00263a                  _BTZERO
                  0x00233e                  _BT_D
                  0x00236c                  _BT_E
                  0x0023ae                  _BT_R
                  0x0022f0                  _Blink
                  0x002676                  _Buf2DateTime
                  0x003356                  _Buf2GageData
                  0x00314e                  _Buffer2Decimal
                  0x0003dc                  _BusyUART1
                  0x00719a                  _CMD_LINE
                  0x003b66                  _CMDcomm
                  0x007498                  _CRC
                  0x00751c                  _CRC_SN
                  0x0002b0                  _CloseI2C1
                  0x0002bc                  _CloseI2C2
                  0x000372                  _CloseOC1
                  0x000386                  _CloseTimer23
                  0x000392                  _CloseTimer3
                  0x000484                  _ConfigINT1
                  0x00039a                  _ConfigIntTimer89
                  0x0003e6                  _ConfigIntUART1
                  0x0079e2                  _DISLOGINT
                  0x00042e                  _DataRdyUART1
                  0x010680                  _ENLOGINT
                  0x000000                  _FBS
                  0x000000                  _FGS
                  0xf8000e                  _FICD
                  0xf80008                  _FOSC
                  0xf80006                  _FOSCSEL
                  0xf8000c                  _FPOR
                  0x000000                  _FSS
                  0xf8000a                  _FWDT
                  0x0132fa                  _INT16tof32
                  0x0002c8                  _IdleI2C1
                  0x0002e2                  _IdleI2C2
                  0x0145a8                  _MODBUS_DisableStartTime
                  0x01469a                  _MODBUS_DisableStopTime
                  0x0145f0                  _MODBUS_EnableStartTime
                  0x0146d6                  _MODBUS_EnableStopTime
                  0x0146de                  _MODBUS_RX
                  0x01480c                  _MODBUS_TX
                  0x013846                  _MODBUScheckScanInterval
                  0x01392c                  _MODBUScomm
                  0x014876                  _MX1
                  0x0149d4                  _MX16
                  0x014a20                  _MX32
                  0x014a6c                  _MX32T
                  0x0148f0                  _MX4
                  0x01493c                  _MX8
                  0x014988                  _MX8T
                  0x0002fc                  _MasterReadI2C1
                  0x000308                  _MasterReadI2C2
                  0x000314                  _MasterWriteI2C1
                  0x000330                  _MasterWriteI2C2
                  0x00034c                  _NotAckI2C1
                  0x014ab8                  _O_D
                  0x014ae6                  _O_E
                  0x000352                  _OpenI2C1
                  0x000358                  _OpenI2C2
                  0x0003bc                  _OpenTimer3
                  0x0003c4                  _OpenTimer89
                  0x000434                  _OpenUART1
                  0x0152b8                  _R
                  0x0152f0                  _READ_TIME
                  0x0155a6                  _RST
                  0x01576e                  _RTChms2s
                  0x015854                  _RTCtoDecimal
                  0x0154e6                  _ReadSN
                  0x000464                  _ReadUART1
                  0x00035e                  _RestartI2C1
                  0x016466                  _START
                  0x01674e                  _STOP
                  0x016822                  _STOPTIME
                  0x000362                  _StartI2C1
                  0x000366                  _StartI2C2
                  0x00036a                  _StopI2C1
                  0x00036e                  _StopI2C2
                  0x01e354                  _StopshutdownTimer
                  0x01a77c                  _V_HT2C
                  0x01abfa                  _WRITE_TIME
                  0x0003d2                  _WriteTimer3
                  0x0003d6                  _WriteTimer89
                  0x000476                  _WriteUART1
                  0x01acac                  _X
                  0x0021da                  __3VX_off
                  0x0021c4                  __3VX_on
                  0x01adce                  __ADC1Interrupt
                  0x01ae32                  __ADC2Interrupt
                  0x01b256                  __AltADC1Interrupt
                  0x01b2ba                  __AltADC2Interrupt
                  0x01b3be                  __AltC1Interrupt
                  0x01b3aa                  __AltC1RxRdyInterrupt
                  0x01b5da                  __AltC1TxReqInterrupt
                  0x01b53a                  __AltC2Interrupt
                  0x01b526                  __AltC2RxRdyInterrupt
                  0x01b5ee                  __AltC2TxReqInterrupt
                  0x01b2a6                  __AltCNInterrupt
                  0x01b54e                  __AltDCIErrInterrupt
                  0x01b562                  __AltDCIInterrupt
                  0x01b1ca                  __AltDMA0Interrupt
                  0x01b26a                  __AltDMA1Interrupt
                  0x01b2f6                  __AltDMA2Interrupt
                  0x01b3d2                  __AltDMA3Interrupt
                  0x01b486                  __AltDMA4Interrupt
                  0x01b576                  __AltDMA5Interrupt
                  0x01b5b2                  __AltDMA6Interrupt
                  0x01b5c6                  __AltDMA7Interrupt
                  0x01b18e                  __AltIC1Interrupt
                  0x01b1de                  __AltIC2Interrupt
                  0x01b3e6                  __AltIC3Interrupt
                  0x01b3fa                  __AltIC4Interrupt
                  0x01b40e                  __AltIC5Interrupt
                  0x01b422                  __AltIC6Interrupt
                  0x01b2ce                  __AltIC7Interrupt
                  0x01b2e2                  __AltIC8Interrupt
                  0x01b17a                  __AltINT0Interrupt
                  0x01b9a6                  __AltINT1Interrupt
                  0x01b346                  __AltINT2Interrupt
                  0x01b4fe                  __AltINT3Interrupt
                  0x01b512                  __AltINT4Interrupt
                  0x01b292                  __AltMI2C1Interrupt
                  0x01b4c2                  __AltMI2C2Interrupt
                  0x01b1a2                  __AltOC1Interrupt
                  0x01b1f2                  __AltOC2Interrupt
                  0x01b30a                  __AltOC3Interrupt
                  0x01b31e                  __AltOC4Interrupt
                  0x01b436                  __AltOC5Interrupt
                  0x01b44a                  __AltOC6Interrupt
                  0x01b45e                  __AltOC7Interrupt
                  0x01b472                  __AltOC8Interrupt
                  0x01bcac                  __AltOscillatorFail
                  0x01b27e                  __AltSI2C1Interrupt
                  0x01b4ae                  __AltSI2C2Interrupt
                  0x01b22e                  __AltSPI1Interrupt
                  0x01b382                  __AltSPI2ErrInterrupt
                  0x01b396                  __AltSPI2Interrupt
                  0x01b1b6                  __AltT1Interrupt
                  0x01b206                  __AltT2Interrupt
                  0x01b21a                  __AltT3Interrupt
                  0x01b332                  __AltT4Interrupt
                  0x01bce2                  __AltT5Interrupt
                  0x01b49a                  __AltT6Interrupt
                  0x01bd22                  __AltT7Interrupt
                  0x01b4d6                  __AltT8Interrupt
                  0x01b4ea                  __AltT9Interrupt
                  0x01b58a                  __AltU1ErrInterrupt
                  0x01b642                  __AltU1RXInterrupt
                  0x01b242                  __AltU1TXInterrupt
                  0x01b59e                  __AltU2ErrInterrupt
                  0x01b35a                  __AltU2RXInterrupt
                  0x01b36e                  __AltU2TXInterrupt
                  0x01af36                  __C1Interrupt
                  0x01af22                  __C1RxRdyInterrupt
                  0x01b152                  __C1TxReqInterrupt
                  0x01b0b2                  __C2Interrupt
                  0x01b09e                  __C2RxRdyInterrupt
                  0x01b166                  __C2TxReqInterrupt
                  0x01ae1e                  __CNInterrupt
                  0x01b0c6                  __DCIErrInterrupt
                  0x01b0da                  __DCIInterrupt
                  0x01ad42                  __DMA0Interrupt
                  0x01ade2                  __DMA1Interrupt
                  0x01ae6e                  __DMA2Interrupt
                  0x01af4a                  __DMA3Interrupt
                  0x01affe                  __DMA4Interrupt
                  0x01b0ee                  __DMA5Interrupt
                  0x01b12a                  __DMA6Interrupt
                  0x01b13e                  __DMA7Interrupt
                  0x0002ac                  __DefaultInterrupt
                  0x001668                  __Dnorm
                  0xf80000                  __FBS.sec
                  0xf80004                  __FGS.sec
                  0xf80002                  __FSS.sec
                  0x01ad06                  __IC1Interrupt
                  0x01ad56                  __IC2Interrupt
                  0x01af5e                  __IC3Interrupt
                  0x01af72                  __IC4Interrupt
                  0x01af86                  __IC5Interrupt
                  0x01af9a                  __IC6Interrupt
                  0x01ae46                  __IC7Interrupt
                  0x01ae5a                  __IC8Interrupt
                  0x01acf2                  __INT0Interrupt
                  0x01b682                  __INT1Interrupt
                  0x01aebe                  __INT2Interrupt
                  0x01b076                  __INT3Interrupt
                  0x01b08a                  __INT4Interrupt
                  0x00123a                  __LDunscale
                  0x00128e                  __Litob
                  0x01ae0a                  __MI2C1Interrupt
                  0x01b03a                  __MI2C2Interrupt
                  0x01ad1a                  __OC1Interrupt
                  0x01ad6a                  __OC2Interrupt
                  0x01ae82                  __OC3Interrupt
                  0x01ae96                  __OC4Interrupt
                  0x01afae                  __OC5Interrupt
                  0x01afc2                  __OC6Interrupt
                  0x01afd6                  __OC7Interrupt
                  0x01afea                  __OC8Interrupt
                  0x01bc98                  __OscillatorFail
                  0x0014ec                  __Puttxt
                  0x01adf6                  __SI2C1Interrupt
                  0x01b026                  __SI2C2Interrupt
                  0x01ada6                  __SPI1Interrupt
                  0x01aefa                  __SPI2ErrInterrupt
                  0x01af0e                  __SPI2Interrupt
                  0x01ad2e                  __T1Interrupt
                  0x01ad7e                  __T2Interrupt
                  0x01ad92                  __T3Interrupt
                  0x01aeaa                  __T4Interrupt
                  0x01bcc0                  __T5Interrupt
                  0x01b012                  __T6Interrupt
                  0x01bd02                  __T7Interrupt
                  0x01b04e                  __T8Interrupt
                  0x01b062                  __T9Interrupt
                  0x01b102                  __U1ErrInterrupt
                  0x01b602                  __U1RXInterrupt
                  0x01adba                  __U1TXInterrupt
                  0x01b116                  __U2ErrInterrupt
                  0x01aed2                  __U2RXInterrupt
                  0x01aee6                  __U2TXInterrupt
                  0x001664                  __Vacopy
                  0x000fcc                  ___Genld_cdfFnopuxX
                  0x000d7c                  ___Ldtob_cdfFnopuxX
                  0x000982                  ___Printf_cdfFnopuxX
                  0x000982                  ___Printf_cdnopuxX
                  0x000ae6                  ___Putfld_cdfFnopuxX
                  0x000ae6                  ___Putfld_cdnopuxX
                  0x001c0a                  ___adddf3
                  0x0004ba                  ___addsf3
                  0x01e35a                  ___delay32
                  0x001714                  ___divdf3
                  0x001b4e                  ___divdi3
                  0x000574                  ___divsf3
                  0x0017c8                  ___divsi3
                  0x001700                  ___eqdf2
                  0x0005f8                  ___eqsf2
                  0x001870                  ___extendsfdf2
                  0x0018ae                  ___fixdfsi
                  0x000600                  ___fixsfsi
                  0x000642                  ___fixunssfsi
                  0x001de4                  ___floatdidf
                  0x000898                  ___floatdisf
                  0x001906                  ___floatsidf
                  0x000678                  ___floatsisf
                  0x001e04                  ___floatundidf
                  0x0008b8                  ___floatundisf
                  0x00067e                  ___floatunsisf
                  0x00170a                  ___gedf2
                  0x0005fc                  ___gesf2
                  0x00170a                  ___gtdf2
                  0x0005fc                  ___gtsf2
                  0x001700                  ___ledf2
                  0x0005f8                  ___lesf2
                  0x001700                  ___ltdf2
                  0x0005f8                  ___ltsf2
                  0x001bae                  ___moddi3
                  0x00190c                  ___muldf3
                  0x0019fa                  ___mulp32eds3
                  0x0019fa                  ___mulp32peds3
                  0x0007da                  ___mulsf3
                  0x0019fa                  ___mulsi3
                  0x000682                  ___nesf2
                  0x0019f6                  ___subdf3
                  0x0004b8                  ___subsf3
                  0x001b38                  ___udivdi3
                  0x001a52                  ___udivmoddi3
                  0x000916                  ___udivsi3
                  0x001b46                  ___umoddi3
                  0x000842                  ___umodsi3
                  0x001d56                  __dPropagateNaN
                  0x00023c                  __data_init
                  0x00023c                  __data_init_standard
                  0x001d04                  __dcompare
                  0x0017e6                  __dpack
                  0x001860                  __dreturnNaN
                  0x001d72                  __dtype
                  0x001d96                  __dunpack
                  0x00183e                  __dunpack2
                  0x001866                  __dunpack2exit
                  0x00070c                  __fPropagateNaN
                  0x00071e                  __fbopExit
                  0x000726                  __fbopReturnNaN
                  0x000862                  __fcompare
                  0x000686                  __fpack
                  0x000848                  __frexpf
                  0x0006d2                  __funpack
                  0x0006fc                  __funpack2
                  0x00022c                  __psv_init
                  0x000200                  __resetPRI
                  0x000964                  __sprintf_cdfFnopuxX
                  0x000964                  __sprintf_cdnopuxX
                  0x0021f2                  _bcd2d
                  0x00386c                  _checkScanInterval
                  0x003a68                  _checkSynch
                  0x003b2a                  _clockMux
                  0x003b52                  _clockThMux
                  0x0071b6                  _configMODBUStimers
                  0x007242                  _configShutdownTimer
                  0x007254                  _configTimers
                  0x007286                  _configUARTnormal
                  0x0072c8                  _controlPortStatus
                  0x00757c                  _crlf
                  0x0075a2                  _debounce
                  0x01e2a8                  _delay
                  0x0075c0                  _disableAlarm
                  0x00761c                  _disableBT
                  0x007674                  _disableChannel
                  0x00798c                  _disableINT1
                  0x007996                  _disableOP
                  0x007800                  _disableTHChannel
                  0x007a0c                  _disableTimers
                  0x007a1a                  _disableVWchannel
                  0x007a38                  _displayBCD
                  0x007a8e                  _displayClock
                  0x01d24a                  _displayError
                  0x007bca                  _displayFRAMError
                  0x007c06                  _displayGageInfo
                  0x0088c6                  _displayLogInterval
                  0x008a96                  _displayLogTable
                  0x0087f4                  _displayLoggingWillStart
                  0x008854                  _displayLoggingWillStop
                  0x008bea                  _displayMUX
                  0x008ad6                  _displayMemoryStatus
                  0x00a0d6                  _displayReading
                  0x00cb16                  _displayScanInterval
                  0x00cb5a                  _displayTempReading
                  0x0100ae                  _displayTemporaryStatus
                  0x0101fa                  _displayTestMenu
                  0x0011d4                  _div
                  0x0102ac                  _enableAlarm
                  0x01033a                  _enableBT
                  0x01036c                  _enableChannel
                  0x010674                  _enableINT1
                  0x0106bc                  _enableOP
                  0x0104f0                  _enableTHChannel
                  0x010814                  _enableVWchannel
                  0x0106fe                  _f32toINT16
                  0x01097c                  _filterArray
                  0x010a2c                  _formatandDisplayGageInfo
                  0x010e3e                  _getChannel
                  0x0110c0                  _getConversion
                  0x012de4                  _getFrequency
                  0x011174                  _getGageInfo
                  0x012648                  _getGageType
                  0x01277a                  _getLogIntLength
                  0x01271a                  _getLogInterval
                  0x012bea                  _getLogIterations
                  0x010e9a                  _getSNbytes
                  0x012f94                  _getSerialNumber
                  0x01307c                  _getThermtype
                  0x0130f0                  _getTxChecksum
                  0x01312e                  _handleCOMError
                  0x01313a                  _handleFRAMResults
                  0x01316e                  _hms
                  0x013296                  _hms2s
                  0x00037c                  _isWDTTO
                  0x000936                  _isalpha
                  0x00094a                  _isgraph
                  0x0011ea                  _ldiv
                  0x013348                  _loadDefaults
                  0x00072c                  _logf
                  0x001e5a                  _main
                  0x001214                  _memcpy
                  0x014b28                  _pack
                  0x014b46                  _pluck
                  0x014cd8                  _pluckNEG
                  0x014ca0                  _pluckOFF
                  0x014cb0                  _pluckON
                  0x014cce                  _pluckPOS
                  0x014ce2                  _processDS3231Temperature
                  0x014d02                  _processReading
                  0x01511c                  _prompt
                  0x00043c                  _putsUART1
                  0x015152                  _readClock
                  0x01528a                  _readDS3231temperature
                  0x01e1e4                  _read_AD5241
                  0x01d6be                  _read_Flt_FRAM
                  0x01d3c8                  _read_Int_FRAM
                  0x01d564                  _read_float
                  0x01d53a                  _read_longFRAM
                  0x0155c0                  _read_vw
                  0x01562e                  _reloadLogTable
                  0x015666                  _resetMemory
                  0x0156bc                  _restoreSettings
                  0x01590a                  _seconds2hms
                  0x01d8be                  _selectBank
                  0x01595a                  _setADCsleep
                  0x015976                  _setADCwake
                  0x015988                  _setChannelConversion
                  0x015d0c                  _setChannelThermtype
                  0x015f80                  _setClock
                  0x01610e                  _setup
                  0x016234                  _shutdown
                  0x01e2c0                  _shutdownTimer
                  0x01e316                  _shutdownTimerwithReset
                  0x01db4a                  _sleepFRAM
                  0x0162b8                  _start32KHz
                  0x0162cc                  _startLogging
                  0x016578                  _stop32KHz
                  0x016592                  _stopLogging
                  0x016aec                  _storeChannelReading
                  0x016998                  _storeGageType
                  0x0169be                  _storeLogInterval
                  0x016cbe                  _storeReading
                  0x017458                  _storeTempChannelReading
                  0x01752a                  _storeTempChannelTHReading
                  0x01754e                  _storeTempReading
                  0x001222                  _strchr
                  0x017592                  _synch
                  0x0175f0                  _synch_one
                  0x017674                  _synch_zero
                  0x0178de                  _take_One_Complete_Reading
                  0x0176f8                  _take_analog_reading
                  0x01783c                  _take_fast_analog_reading
                  0x01969a                  _take_reading
                  0x01dbfc                  _testFRAM
                  0x01e198                  _testNACK
                  0x0197e2                  _testPoint
                  0x01985c                  _testPoint2
                  0x019888                  _testReset
                  0x0199a4                  _toBCD
                  0x019ad4                  _toJulian
                  0x019bfa                  _toMonthDay
                  0x019f40                  _unpack
                  0x019f62                  _upD8RTCAlarm1
                  0x01a9dc                  _vwf32toINT16
                  0x01ab2a                  _wait
                  0x01ab52                  _wait2S
                  0x01ab80                  _wrap_one
                  0x01abb0                  _wrap_stop
                  0x01abca                  _wrap_zero
                  0x01e23e                  _write_AD5241
                  0x01d58e                  _write_Flt_FRAM
                  0x01d302                  _write_Int_FRAM
                  0x01d510                  _write_longFRAM
                  0x000956                  sprintf_cdfFnopuxX.XXeo:_prout

Memory Configuration

Name             Origin             Length             Attributes
data             0x000800           0x007800           a !xr
reset            0x000000           0x000004  
ivt              0x000004           0x0000fc  
_reserved        0x000100           0x000004  
aivt             0x000104           0x0000fc  
program          0x000200           0x02aa00           xr
FBS              0xf80000           0x000002  
FSS              0xf80002           0x000002  
FGS              0xf80004           0x000002  
FOSCSEL          0xf80006           0x000002  
FOSC             0xf80008           0x000002  
FWDT             0xf8000a           0x000002  
FPOR             0xf8000c           0x000002  
FICD             0xf8000e           0x000002  
FUID0            0xf80010           0x000002  
FUID1            0xf80012           0x000002  
FUID2            0xf80014           0x000002  
FUID3            0xf80016           0x000002  
*default*        0x000000           0xffffffff  

Linker script and memory map

LOAD build/default/production/_ext/1472/LC8004delay_b.o
LOAD build/default/production/_ext/1472/LC8004extFRAM_i.o
LOAD build/default/production/_ext/1472/AD5241b.o
LOAD build/default/production/_ext/1472/lc8004main_1_10.o
                    0x0001                  __MPLAB_BUILD = 0x1
LOAD c:/program files (x86)/microchip/xc16/v1.26/bin/bin/../../lib/dsPIC33F\libp33FJ256GP710A-elf.a
LOAD c:/program files (x86)/microchip/xc16/v1.26/bin/bin/../../lib\libfx-elf.a
                    0xf80000                  __FBS = 0xf80000
                    0xf80002                  __FSS = 0xf80002
                    0xf80004                  __FGS = 0xf80004
                    0xf80006                  __FOSCSEL = 0xf80006
                    0xf80008                  __FOSC = 0xf80008
                    0xf8000a                  __FWDT = 0xf8000a
                    0xf8000c                  __FPOR = 0xf8000c
                    0xf8000e                  __FICD = 0xf8000e
                    0xf80010                  __FUID0 = 0xf80010
                    0xf80012                  __FUID1 = 0xf80012
                    0xf80014                  __FUID2 = 0xf80014
                    0xf80016                  __FUID3 = 0xf80016
                    0x0200                  __CODE_BASE = 0x200
                    0x2aa00                  __CODE_LENGTH = 0x2aa00
                    0x0004                  __IVT_BASE = 0x4
                    0x0104                  __AIVT_BASE = 0x104
                    0x0800                  __DATA_BASE = 0x800
                    0x7800                  __DATA_LENGTH = 0x7800
                    0x4800                  __YDATA_BASE = 0x4800
                    0x7800                  __DMA_BASE = 0x7800
                    0x7fff                  __DMA_END = 0x7fff

.reset            0x000000          0x4
                  0x000000          0x2 SHORT 0x200 ABSOLUTE (__reset)
                  0x000001          0x2 SHORT 0x4
                  0x000002          0x2 SHORT 0x0 ((ABSOLUTE (__reset) >> 0x10) & 0x7f)
                  0x000003          0x2 SHORT 0x0

.text             0x000200       0x1c5a
 *(.init)
 .init            0x000200         0x3c c:/program files (x86)/microchip/xc16/v1.26/bin/bin/../../lib\liblega-pic30-elf.a(crt0_standard.o)
                  0x000200                  __resetPRI
                  0x000200                  __reset
                  0x00022c                  __psv_init
 .init            0x00023c         0x6c c:/program files (x86)/microchip/xc16/v1.26/bin/bin/../../lib\liblega-pic30-elf.a(data_init_standard.o)
                  0x00023c                  __data_init_standard
                  0x00023c                  __data_init
 *(.user_init)
 *(.handle)
 .handle          0x0002a8          0x4 jump_table
 *(.isr*)
 .isr             0x0002ac          0x4 default_isr
                  0x0002ac                  __DefaultInterrupt
 *(.libc)
 *(.libm)
 *(.libdsp)
 *(.lib*)
 .libperi         0x0002b0          0xc c:/program files (x86)/microchip/xc16/v1.26/bin/bin/../../lib/dsPIC33F\libp33FJ256GP710A-elf.a(CloseI2C1.o)
                  0x0002b0                  _CloseI2C1
 .libperi         0x0002bc          0xc c:/program files (x86)/microchip/xc16/v1.26/bin/bin/../../lib/dsPIC33F\libp33FJ256GP710A-elf.a(CloseI2C2.o)
                  0x0002bc                  _CloseI2C2
 .libperi         0x0002c8         0x1a c:/program files (x86)/microchip/xc16/v1.26/bin/bin/../../lib/dsPIC33F\libp33FJ256GP710A-elf.a(IdleI2C1.o)
                  0x0002c8                  _IdleI2C1
 .libperi         0x0002e2         0x1a c:/program files (x86)/microchip/xc16/v1.26/bin/bin/../../lib/dsPIC33F\libp33FJ256GP710A-elf.a(IdleI2C2.o)
                  0x0002e2                  _IdleI2C2
 .libperi         0x0002fc          0xc c:/program files (x86)/microchip/xc16/v1.26/bin/bin/../../lib/dsPIC33F\libp33FJ256GP710A-elf.a(MasterReadI2C1.o)
                  0x0002fc                  _MasterReadI2C1
 .libperi         0x000308          0xc c:/program files (x86)/microchip/xc16/v1.26/bin/bin/../../lib/dsPIC33F\libp33FJ256GP710A-elf.a(MasterReadI2C2.o)
                  0x000308                  _MasterReadI2C2
 .libperi         0x000314         0x1c c:/program files (x86)/microchip/xc16/v1.26/bin/bin/../../lib/dsPIC33F\libp33FJ256GP710A-elf.a(MasterWriteI2C1.o)
                  0x000314                  _MasterWriteI2C1
 .libperi         0x000330         0x1c c:/program files (x86)/microchip/xc16/v1.26/bin/bin/../../lib/dsPIC33F\libp33FJ256GP710A-elf.a(MasterWriteI2C2.o)
                  0x000330                  _MasterWriteI2C2
 .libperi         0x00034c          0x6 c:/program files (x86)/microchip/xc16/v1.26/bin/bin/../../lib/dsPIC33F\libp33FJ256GP710A-elf.a(NotAckI2C1.o)
                  0x00034c                  _NotAckI2C1
 .libperi         0x000352          0x6 c:/program files (x86)/microchip/xc16/v1.26/bin/bin/../../lib/dsPIC33F\libp33FJ256GP710A-elf.a(OpenI2C1.o)
                  0x000352                  _OpenI2C1
 .libperi         0x000358          0x6 c:/program files (x86)/microchip/xc16/v1.26/bin/bin/../../lib/dsPIC33F\libp33FJ256GP710A-elf.a(OpenI2C2.o)
                  0x000358                  _OpenI2C2
 .libperi         0x00035e          0x4 c:/program files (x86)/microchip/xc16/v1.26/bin/bin/../../lib/dsPIC33F\libp33FJ256GP710A-elf.a(RestartI2C1.o)
                  0x00035e                  _RestartI2C1
 .libperi         0x000362          0x4 c:/program files (x86)/microchip/xc16/v1.26/bin/bin/../../lib/dsPIC33F\libp33FJ256GP710A-elf.a(StartI2C1.o)
                  0x000362                  _StartI2C1
 .libperi         0x000366          0x4 c:/program files (x86)/microchip/xc16/v1.26/bin/bin/../../lib/dsPIC33F\libp33FJ256GP710A-elf.a(StartI2C2.o)
                  0x000366                  _StartI2C2
 .libperi         0x00036a          0x4 c:/program files (x86)/microchip/xc16/v1.26/bin/bin/../../lib/dsPIC33F\libp33FJ256GP710A-elf.a(StopI2C1.o)
                  0x00036a                  _StopI2C1
 .libperi         0x00036e          0x4 c:/program files (x86)/microchip/xc16/v1.26/bin/bin/../../lib/dsPIC33F\libp33FJ256GP710A-elf.a(StopI2C2.o)
                  0x00036e                  _StopI2C2
 .libperi         0x000372          0xa c:/program files (x86)/microchip/xc16/v1.26/bin/bin/../../lib/dsPIC33F\libp33FJ256GP710A-elf.a(CloseOC1.o)
                  0x000372                  _CloseOC1
 .libperi         0x00037c          0xa c:/program files (x86)/microchip/xc16/v1.26/bin/bin/../../lib/dsPIC33F\libp33FJ256GP710A-elf.a(isWDTTO.o)
                  0x00037c                  _isWDTTO
 .libperi         0x000386          0xc c:/program files (x86)/microchip/xc16/v1.26/bin/bin/../../lib/dsPIC33F\libp33FJ256GP710A-elf.a(CloseTimer23.o)
                  0x000386                  _CloseTimer23
 .libperi         0x000392          0x8 c:/program files (x86)/microchip/xc16/v1.26/bin/bin/../../lib/dsPIC33F\libp33FJ256GP710A-elf.a(CloseTimer3.o)
                  0x000392                  _CloseTimer3
 .libperi         0x00039a         0x22 c:/program files (x86)/microchip/xc16/v1.26/bin/bin/../../lib/dsPIC33F\libp33FJ256GP710A-elf.a(ConfigIntTimer89.o)
                  0x00039a                  _ConfigIntTimer89
 .libperi         0x0003bc          0x8 c:/program files (x86)/microchip/xc16/v1.26/bin/bin/../../lib/dsPIC33F\libp33FJ256GP710A-elf.a(OpenTimer3.o)
                  0x0003bc                  _OpenTimer3
 .libperi         0x0003c4          0xe c:/program files (x86)/microchip/xc16/v1.26/bin/bin/../../lib/dsPIC33F\libp33FJ256GP710A-elf.a(OpenTimer89.o)
                  0x0003c4                  _OpenTimer89
 .libperi         0x0003d2          0x4 c:/program files (x86)/microchip/xc16/v1.26/bin/bin/../../lib/dsPIC33F\libp33FJ256GP710A-elf.a(WriteTimer3.o)
                  0x0003d2                  _WriteTimer3
 .libperi         0x0003d6          0x6 c:/program files (x86)/microchip/xc16/v1.26/bin/bin/../../lib/dsPIC33F\libp33FJ256GP710A-elf.a(WriteTimer89.o)
                  0x0003d6                  _WriteTimer89
 .libperi         0x0003dc          0xa c:/program files (x86)/microchip/xc16/v1.26/bin/bin/../../lib/dsPIC33F\libp33FJ256GP710A-elf.a(BusyUART1.o)
                  0x0003dc                  _BusyUART1
 .libperi         0x0003e6         0x48 c:/program files (x86)/microchip/xc16/v1.26/bin/bin/../../lib/dsPIC33F\libp33FJ256GP710A-elf.a(ConfigIntUART1.o)
                  0x0003e6                  _ConfigIntUART1
 .libperi         0x00042e          0x6 c:/program files (x86)/microchip/xc16/v1.26/bin/bin/../../lib/dsPIC33F\libp33FJ256GP710A-elf.a(DataRdyUART1.o)
                  0x00042e                  _DataRdyUART1
 .libperi         0x000434          0x8 c:/program files (x86)/microchip/xc16/v1.26/bin/bin/../../lib/dsPIC33F\libp33FJ256GP710A-elf.a(OpenUART1.o)
                  0x000434                  _OpenUART1
 .libperi         0x00043c         0x28 c:/program files (x86)/microchip/xc16/v1.26/bin/bin/../../lib/dsPIC33F\libp33FJ256GP710A-elf.a(putsUART1.o)
                  0x00043c                  _putsUART1
 .libperi         0x000464         0x12 c:/program files (x86)/microchip/xc16/v1.26/bin/bin/../../lib/dsPIC33F\libp33FJ256GP710A-elf.a(ReadUART1.o)
                  0x000464                  _ReadUART1
 .libperi         0x000476          0xe c:/program files (x86)/microchip/xc16/v1.26/bin/bin/../../lib/dsPIC33F\libp33FJ256GP710A-elf.a(WriteUART1.o)
                  0x000476                  _WriteUART1
 .libperi         0x000484         0x34 c:/program files (x86)/microchip/xc16/v1.26/bin/bin/../../lib/dsPIC33F\libp33FJ256GP710A-elf.a(ConfigINT1.o)
                  0x000484                  _ConfigINT1
 .libm.subsf3     0x0004b8         0xbc c:/program files (x86)/microchip/xc16/v1.26/bin/bin/../../lib\libm-elf.a(addsf3.eo)
                  0x0004b8                  ___subsf3
                  0x0004ba                  ___addsf3
 .libm.divfs3     0x000574         0x84 c:/program files (x86)/microchip/xc16/v1.26/bin/bin/../../lib\libm-elf.a(divsf3.eo)
                  0x000574                  ___divsf3
 .libm.eqsf2      0x0005f8          0x4 c:/program files (x86)/microchip/xc16/v1.26/bin/bin/../../lib\libm-elf.a(feqltle.eo)
                  0x0005f8                  ___eqsf2
                  0x0005f8                  ___ltsf2
                  0x0005f8                  ___lesf2
 .libm.gtsf2      0x0005fc          0x4 c:/program files (x86)/microchip/xc16/v1.26/bin/bin/../../lib\libm-elf.a(fgtge.eo)
                  0x0005fc                  ___gesf2
                  0x0005fc                  ___gtsf2
 .libm.fixsfsi    0x000600         0x42 c:/program files (x86)/microchip/xc16/v1.26/bin/bin/../../lib\libm-elf.a(fixsfsi.eo)
                  0x000600                  _(float, int, long long, short, float, short, int)
 .libm.fixunssfsi
                  0x000642         0x36 c:/program files (x86)/microchip/xc16/v1.26/bin/bin/../../lib\libm-elf.a(fixunssfsi.eo)
                  0x000642                  ___fixunssfsi
 .libm.floatsisf
                  0x000678          0x6 c:/program files (x86)/microchip/xc16/v1.26/bin/bin/../../lib\libm-elf.a(floatsisf.eo)
                  0x000678                  ___floatsisf
 .libm.floatunsisf
                  0x00067e          0x4 c:/program files (x86)/microchip/xc16/v1.26/bin/bin/../../lib\libm-elf.a(floatunsisf.eo)
                  0x00067e                  ___floatunsisf
 .libm.nesf2      0x000682          0x4 c:/program files (x86)/microchip/xc16/v1.26/bin/bin/../../lib\libm-elf.a(fne.eo)
                  0x000682                  ___nesf2
 .libm.fpack      0x000686         0x4c c:/program files (x86)/microchip/xc16/v1.26/bin/bin/../../lib\libm-elf.a(fpack.eo)
                  0x000686                  __fpack
 .libm.funpack    0x0006d2         0x2a c:/program files (x86)/microchip/xc16/v1.26/bin/bin/../../lib\libm-elf.a(funpack.eo)
                  0x0006d2                  __funpack
 .libm.funpack2
                  0x0006fc         0x10 c:/program files (x86)/microchip/xc16/v1.26/bin/bin/../../lib\libm-elf.a(funpack2.eo)
                  0x0006fc                  __funpack2
 .libm.fPropagateNaN
                  0x00070c         0x12 c:/program files (x86)/microchip/xc16/v1.26/bin/bin/../../lib\libm-elf.a(futil.eo)
                  0x00070c                  __fPropagateNaN
 .libm.fbobExit
                  0x00071e          0x8 c:/program files (x86)/microchip/xc16/v1.26/bin/bin/../../lib\libm-elf.a(futil.eo)
                  0x00071e                  __fbopExit
 .libm.fbopReturnNaN
                  0x000726          0x6 c:/program files (x86)/microchip/xc16/v1.26/bin/bin/../../lib\libm-elf.a(futil.eo)
                  0x000726                  __fbopReturnNaN
 .libm.logf       0x00072c         0xae c:/program files (x86)/microchip/xc16/v1.26/bin/bin/../../lib\libm-elf.a(logf.eo)
                  0x00072c                  _logf
 .libm.mulsf3     0x0007da         0x68 c:/program files (x86)/microchip/xc16/v1.26/bin/bin/../../lib\libm-elf.a(mulsf3.eo)
                  0x0007da                  ___mulsf3
 .libm.umodsi3    0x000842          0x6 c:/program files (x86)/microchip/xc16/v1.26/bin/bin/../../lib\libm-elf.a(umodsi3.eo)
                  0x000842                  ___umodsi3
 .libm.frexpf     0x000848         0x1a c:/program files (x86)/microchip/xc16/v1.26/bin/bin/../../lib\libm-elf.a(_frexpf.eo)
                  0x000848                  __frexpf
 .libm.fcompare
                  0x000862         0x36 c:/program files (x86)/microchip/xc16/v1.26/bin/bin/../../lib\libm-elf.a(fcompare.eo)
                  0x000862                  __fcompare
 .libm.floatdisf
                  0x000898         0x20 c:/program files (x86)/microchip/xc16/v1.26/bin/bin/../../lib\libm-elf.a(floatdisf.eo)
                  0x000898                  ___floatdisf
 .libm.floatundisf
                  0x0008b8         0x5e c:/program files (x86)/microchip/xc16/v1.26/bin/bin/../../lib\libm-elf.a(floatundisf.eo)
                  0x0008b8                  ___floatundisf
 .libm.udivsi3    0x000916         0x20 c:/program files (x86)/microchip/xc16/v1.26/bin/bin/../../lib\libm-elf.a(udivsi3.eo)
                  0x000916                  ___udivsi3
 .libc.isalpha    0x000936         0x14 c:/program files (x86)/microchip/xc16/v1.26/bin/bin/../../lib\liblega-c-elf.a(isalpha.XXeso)
                  0x000936                  _isalpha
 .libc.isgraph    0x00094a          0xc c:/program files (x86)/microchip/xc16/v1.26/bin/bin/../../lib\liblega-c-elf.a(isgraph.XXeso)
                  0x00094a                  _isgraph
 .libc.prout      0x000956          0xe c:/program files (x86)/microchip/xc16/v1.26/bin/bin/../../lib\liblega-c-elf.a(sprintf_cdfFnopuxX.XXeo)
                  0x000956                  sprintf_cdfFnopuxX.XXeo:_prout
 .libc._sprintf_cdfFnopuxX
                  0x000964         0x1e c:/program files (x86)/microchip/xc16/v1.26/bin/bin/../../lib\liblega-c-elf.a(sprintf_cdfFnopuxX.XXeo)
                  0x000964                  __sprintf_cdnopuxX
                  0x000964                  __sprintf_cdfFnopuxX
 .libc.__Printf_cdfFnopuxX
                  0x000982        0x164 c:/program files (x86)/microchip/xc16/v1.26/bin/bin/../../lib\liblega-c-elf.a(xprintf_cdfFnopuxX.XXeo)
                  0x000982                  ___Printf_cdnopuxX
                  0x000982                  ___Printf_cdfFnopuxX
 .libc.__Putfld_cdfFnopuxX
                  0x000ae6        0x296 c:/program files (x86)/microchip/xc16/v1.26/bin/bin/../../lib\liblega-c-elf.a(xputfld_cdfFnopuxX.XXeo)
                  0x000ae6                  ___Putfld_cdfFnopuxX
                  0x000ae6                  ___Putfld_cdnopuxX
 .libc.__Ldtob_cdfFnopuxX
                  0x000d7c        0x250 c:/program files (x86)/microchip/xc16/v1.26/bin/bin/../../lib\liblega-c-elf.a(xldtob_cdfFnopuxX.XXeo)
                  0x000d7c                  ___Ldtob_cdfFnopuxX
 .libc.__Genld_cdfFnopuxX
                  0x000fcc        0x208 c:/program files (x86)/microchip/xc16/v1.26/bin/bin/../../lib\liblega-c-elf.a(xgenld_cdfFnopuxX.XXeo)
                  0x000fcc                  ___Genld_cdfFnopuxX
 .libc.div        0x0011d4         0x16 c:/program files (x86)/microchip/xc16/v1.26/bin/bin/../../lib\liblega-c-elf.a(div.XXeo)
                  0x0011d4                  _div
 .libc.ldiv       0x0011ea         0x2a c:/program files (x86)/microchip/xc16/v1.26/bin/bin/../../lib\liblega-c-elf.a(ldiv.XXeo)
                  0x0011ea                  _ldiv
 .libc.memcpy     0x001214          0xe c:/program files (x86)/microchip/xc16/v1.26/bin/bin/../../lib\liblega-c-elf.a(memcpy.XXeo)
                  0x001214                  _memcpy
 .libc.strchr     0x001222         0x18 c:/program files (x86)/microchip/xc16/v1.26/bin/bin/../../lib\liblega-c-elf.a(strchr.XXeo)
                  0x001222                  _strchr
 .libc._LDunscale
                  0x00123a         0x54 c:/program files (x86)/microchip/xc16/v1.26/bin/bin/../../lib\liblega-c-elf.a(xldunsca.XXeo)
                  0x00123a                  __LDunscale
 .libc._Litob     0x00128e        0x25e c:/program files (x86)/microchip/xc16/v1.26/bin/bin/../../lib\liblega-c-elf.a(xlitob.XXeo)
                  0x00128e                  __Litob
 .libc._Puttxt    0x0014ec        0x178 c:/program files (x86)/microchip/xc16/v1.26/bin/bin/../../lib\liblega-c-elf.a(xputtxt.XXeo)
                  0x0014ec                  __Puttxt
 .libc._Vacopy    0x001664          0x4 c:/program files (x86)/microchip/xc16/v1.26/bin/bin/../../lib\liblega-c-elf.a(xvacopy.XXeo)
                  0x001664                  __Vacopy
 .libc._Dnorm     0x001668         0x98 c:/program files (x86)/microchip/xc16/v1.26/bin/bin/../../lib\liblega-c-elf.a(xdnorm.XXelo)
                  0x001668                  __Dnorm
 .libm.eqdf2      0x001700          0xa c:/program files (x86)/microchip/xc16/v1.26/bin/bin/../../lib\libm-elf.a(deqltle.eo)
                  0x001700                  ___eqdf2
                  0x001700                  ___ltdf2
                  0x001700                  ___ledf2
 .libm.gtdf2      0x00170a          0xa c:/program files (x86)/microchip/xc16/v1.26/bin/bin/../../lib\libm-elf.a(dgtge.eo)
                  0x00170a                  ___gtdf2
                  0x00170a                  ___gedf2
 .libm.divdf3     0x001714         0xb4 c:/program files (x86)/microchip/xc16/v1.26/bin/bin/../../lib\libm-elf.a(divdf3.eo)
                  0x001714                  ___divdf3
 .libm.divsi3     0x0017c8         0x1e c:/program files (x86)/microchip/xc16/v1.26/bin/bin/../../lib\libm-elf.a(divsi3.eo)
                  0x0017c8                  ___divsi3
 .libm.dpack      0x0017e6         0x58 c:/program files (x86)/microchip/xc16/v1.26/bin/bin/../../lib\libm-elf.a(dpack.eo)
                  0x0017e6                  __dpack
 .libm.dunpack2
                  0x00183e         0x32 c:/program files (x86)/microchip/xc16/v1.26/bin/bin/../../lib\libm-elf.a(dunpack2.eo)
                  0x00183e                  __dunpack2
                  0x001860                  __dreturnNaN
                  0x001866                  __dunpack2exit
 .libm.extendsfdf2
                  0x001870         0x3e c:/program files (x86)/microchip/xc16/v1.26/bin/bin/../../lib\libm-elf.a(extendsfdf.eo)
                  0x001870                  ___extendsfdf2
 .libm.fixdfsi    0x0018ae         0x58 c:/program files (x86)/microchip/xc16/v1.26/bin/bin/../../lib\libm-elf.a(fixdfsi.eo)
                  0x0018ae                  _(float, int, long long, double, float, short, int)
 .libm.floatsidf
                  0x001906          0x6 c:/program files (x86)/microchip/xc16/v1.26/bin/bin/../../lib\libm-elf.a(floatsidf.eo)
                  0x001906                  ___floatsidf
 .libm.muldf3     0x00190c         0xea c:/program files (x86)/microchip/xc16/v1.26/bin/bin/../../lib\libm-elf.a(muldf3.eo)
                  0x00190c                  ___muldf3
 .libm.subdf3     0x0019f6          0x4 c:/program files (x86)/microchip/xc16/v1.26/bin/bin/../../lib\libm-elf.a(subdf3.eo)
                  0x0019f6                  ___subdf3
 .libm.mulsi3     0x0019fa          0xc c:/program files (x86)/microchip/xc16/v1.26/bin/bin/../../lib\libm-elf.a(mulsi3.eo)
                  0x0019fa                  ___mulp32peds3
                  0x0019fa                  ___mulsi3
                  0x0019fa                  ___mulp32eds3
 .libm.__PplusBdi
                  0x001a06         0x26 c:/program files (x86)/microchip/xc16/v1.26/bin/bin/../../lib\libm-elf.a(divmoddi3.eo)
 .libm.__PminusBdi
                  0x001a2c         0x26 c:/program files (x86)/microchip/xc16/v1.26/bin/bin/../../lib\libm-elf.a(divmoddi3.eo)
 .libm.__udivmoddi3
                  0x001a52         0xe6 c:/program files (x86)/microchip/xc16/v1.26/bin/bin/../../lib\libm-elf.a(divmoddi3.eo)
                  0x001a52                  ___udivmoddi3
 .libm.__udivdi3
                  0x001b38          0xe c:/program files (x86)/microchip/xc16/v1.26/bin/bin/../../lib\libm-elf.a(divmoddi3.eo)
                  0x001b38                  ___udivdi3
 .libm.__umoddi3
                  0x001b46          0x8 c:/program files (x86)/microchip/xc16/v1.26/bin/bin/../../lib\libm-elf.a(divmoddi3.eo)
                  0x001b46                  ___umoddi3
 .libm.__divdi3
                  0x001b4e         0x60 c:/program files (x86)/microchip/xc16/v1.26/bin/bin/../../lib\libm-elf.a(divmoddi3.eo)
                  0x001b4e                  ___divdi3
 .libm.__moddi3
                  0x001bae         0x5c c:/program files (x86)/microchip/xc16/v1.26/bin/bin/../../lib\libm-elf.a(divmoddi3.eo)
                  0x001bae                  ___moddi3
 .libm.adddf3     0x001c0a         0xfa c:/program files (x86)/microchip/xc16/v1.26/bin/bin/../../lib\libm-elf.a(adddf3.eo)
                  0x001c0a                  ___adddf3
 .libm.dcompare
                  0x001d04         0x52 c:/program files (x86)/microchip/xc16/v1.26/bin/bin/../../lib\libm-elf.a(dcompare.eo)
                  0x001d04                  __dcompare
 .libm.dPropagateNaN
                  0x001d56         0x1c c:/program files (x86)/microchip/xc16/v1.26/bin/bin/../../lib\libm-elf.a(dpropagateNaN.eo)
                  0x001d56                  __dPropagateNaN
 .libm.dtype      0x001d72         0x24 c:/program files (x86)/microchip/xc16/v1.26/bin/bin/../../lib\libm-elf.a(dtype.eo)
                  0x001d72                  __dtype
 .libm.dunpack    0x001d96         0x4e c:/program files (x86)/microchip/xc16/v1.26/bin/bin/../../lib\libm-elf.a(dunpack.eo)
                  0x001d96                  __dunpack
 .libm.floatdidf
                  0x001de4         0x20 c:/program files (x86)/microchip/xc16/v1.26/bin/bin/../../lib\libm-elf.a(floatdidf.eo)
                  0x001de4                  ___floatdidf
 .libm.floatundidf
                  0x001e04         0x56 c:/program files (x86)/microchip/xc16/v1.26/bin/bin/../../lib\libm-elf.a(floatundidf.eo)
                  0x001e04                  ___floatundidf

usercode
 *(usercode)

__FBS             0xf80000          0x2
 *(__FBS.sec*)
 __FBS.sec        0xf80000          0x2 FBS
                  0xf80000                  __FBS.sec

__FSS             0xf80002          0x2
 *(__FSS.sec*)
 __FSS.sec        0xf80002          0x2 FSS
                  0xf80002                  __FSS.sec

__FGS             0xf80004          0x2
 *(__FGS.sec*)
 __FGS.sec        0xf80004          0x2 FGS
                  0xf80004                  __FGS.sec

__FOSCSEL
 *(__FOSCSEL.sec*)

__FOSC
 *(__FOSC.sec*)

__FWDT
 *(__FWDT.sec*)

__FPOR
 *(__FPOR.sec*)

__FICD
 *(__FICD.sec*)

__FUID0
 *(__FUID0.sec*)

__FUID1
 *(__FUID1.sec*)

__FUID2
 *(__FUID2.sec*)

__FUID3
 *(__FUID3.sec*)

.comment
 *(.comment)

.debug_info       0x000000      0x102c6
 *(.debug_info)
 .debug_info      0x000000        0x255 build/default/production/_ext/1472/LC8004delay_b.o
 .debug_info      0x000255        0xdf8 build/default/production/_ext/1472/LC8004extFRAM_i.o
 .debug_info      0x00104d        0x2f3 build/default/production/_ext/1472/AD5241b.o
 .debug_info      0x001340       0xef86 build/default/production/_ext/1472/lc8004main_1_10.o
 *(.gnu.linkonce.wi.*)

.debug_abbrev     0x000000        0x639
 *(.debug_abbrev)
 .debug_abbrev    0x000000         0xd9 build/default/production/_ext/1472/LC8004delay_b.o
 .debug_abbrev    0x0000d9        0x1bd build/default/production/_ext/1472/LC8004extFRAM_i.o
 .debug_abbrev    0x000296         0xb6 build/default/production/_ext/1472/AD5241b.o
 .debug_abbrev    0x00034c        0x2ed build/default/production/_ext/1472/lc8004main_1_10.o

.debug_line       0x000000       0x3eed
 *(.debug_line)
 .debug_line      0x000000         0xb8 build/default/production/_ext/1472/LC8004delay_b.o
 .debug_line      0x0000b8        0x329 build/default/production/_ext/1472/LC8004extFRAM_i.o
 .debug_line      0x0003e1         0xc4 build/default/production/_ext/1472/AD5241b.o
 .debug_line      0x0004a5       0x3a48 build/default/production/_ext/1472/lc8004main_1_10.o

.debug_frame      0x000000       0x2776
 *(.debug_frame)
 .debug_frame     0x000000         0x90 build/default/production/_ext/1472/LC8004delay_b.o
 .debug_frame     0x000090        0x16a build/default/production/_ext/1472/LC8004extFRAM_i.o
 .debug_frame     0x0001fa         0x4c build/default/production/_ext/1472/AD5241b.o
 .debug_frame     0x000246       0x2530 build/default/production/_ext/1472/lc8004main_1_10.o

.debug_str        0x000000       0x1072
 *(.debug_str)
 .debug_str       0x000000         0x20 build/default/production/_ext/1472/LC8004delay_b.o
 .debug_str       0x000020         0xa6 build/default/production/_ext/1472/LC8004extFRAM_i.o
 .debug_str       0x0000c6          0xc build/default/production/_ext/1472/AD5241b.o
 .debug_str       0x0000d2        0xfa0 build/default/production/_ext/1472/lc8004main_1_10.o

.debug_loc
 *(.debug_loc)

.debug_macinfo
 *(.debug_macinfo)

.debug_pubnames
                  0x000000       0x2eb0
 *(.debug_pubnames)
 .debug_pubnames
                  0x000000         0x5f build/default/production/_ext/1472/LC8004delay_b.o
 .debug_pubnames
                  0x00005f        0x117 build/default/production/_ext/1472/LC8004extFRAM_i.o
 .debug_pubnames
                  0x000176         0x33 build/default/production/_ext/1472/AD5241b.o
 .debug_pubnames
                  0x0001a9       0x2d07 build/default/production/_ext/1472/lc8004main_1_10.o

.debug_ranges
 *(.debug_ranges)

.debug_aranges    0x000000         0x60
 *(.debug_aranges)
 .debug_aranges
                  0x000000         0x18 build/default/production/_ext/1472/LC8004delay_b.o
 .debug_aranges
                  0x000018         0x18 build/default/production/_ext/1472/LC8004extFRAM_i.o
 .debug_aranges
                  0x000030         0x18 build/default/production/_ext/1472/AD5241b.o
 .debug_aranges
                  0x000048         0x18 build/default/production/_ext/1472/lc8004main_1_10.o
                    0x0000                  WREG0 = 0x0
                    0x0000                  _WREG0 = 0x0
                    0x0002                  WREG1 = 0x2
                    0x0002                  _WREG1 = 0x2
                    0x0004                  WREG2 = 0x4
                    0x0004                  _WREG2 = 0x4
                    0x0006                  WREG3 = 0x6
                    0x0006                  _WREG3 = 0x6
                    0x0008                  WREG4 = 0x8
                    0x0008                  _WREG4 = 0x8
                    0x000a                  WREG5 = 0xa
                    0x000a                  _WREG5 = 0xa
                    0x000c                  WREG6 = 0xc
                    0x000c                  _WREG6 = 0xc
                    0x000e                  WREG7 = 0xe
                    0x000e                  _WREG7 = 0xe
                    0x0010                  WREG8 = 0x10
                    0x0010                  _WREG8 = 0x10
                    0x0012                  WREG9 = 0x12
                    0x0012                  _WREG9 = 0x12
                    0x0014                  WREG10 = 0x14
                    0x0014                  _WREG10 = 0x14
                    0x0016                  WREG11 = 0x16
                    0x0016                  _WREG11 = 0x16
                    0x0018                  WREG12 = 0x18
                    0x0018                  _WREG12 = 0x18
                    0x001a                  WREG13 = 0x1a
                    0x001a                  _WREG13 = 0x1a
                    0x001c                  WREG14 = 0x1c
                    0x001c                  _WREG14 = 0x1c
                    0x001e                  WREG15 = 0x1e
                    0x001e                  _WREG15 = 0x1e
                    0x0020                  SPLIM = 0x20
                    0x0020                  _SPLIM = 0x20
                    0x0022                  ACCAL = 0x22
                    0x0022                  _ACCAL = 0x22
                    0x0024                  ACCAH = 0x24
                    0x0024                  _ACCAH = 0x24
                    0x0026                  ACCAU = 0x26
                    0x0026                  _ACCAU = 0x26
                    0x0028                  ACCBL = 0x28
                    0x0028                  _ACCBL = 0x28
                    0x002a                  ACCBH = 0x2a
                    0x002a                  _ACCBH = 0x2a
                    0x002c                  ACCBU = 0x2c
                    0x002c                  _ACCBU = 0x2c
                    0x002e                  PCL = 0x2e
                    0x002e                  _PCL = 0x2e
                    0x0030                  PCH = 0x30
                    0x0030                  _PCH = 0x30
                    0x0032                  TBLPAG = 0x32
                    0x0032                  _TBLPAG = 0x32
                    0x0034                  PSVPAG = 0x34
                    0x0034                  _PSVPAG = 0x34
                    0x0036                  RCOUNT = 0x36
                    0x0036                  _RCOUNT = 0x36
                    0x0038                  DCOUNT = 0x38
                    0x0038                  _DCOUNT = 0x38
                    0x003a                  DOSTARTL = 0x3a
                    0x003a                  _DOSTARTL = 0x3a
                    0x003c                  DOSTARTH = 0x3c
                    0x003c                  _DOSTARTH = 0x3c
                    0x003e                  DOENDL = 0x3e
                    0x003e                  _DOENDL = 0x3e
                    0x0040                  DOENDH = 0x40
                    0x0040                  _DOENDH = 0x40
                    0x0042                  SR = 0x42
                    0x0042                  _SR = 0x42
                    0x0042                  _SRbits = 0x42
                    0x0044                  CORCON = 0x44
                    0x0044                  _CORCON = 0x44
                    0x0044                  _CORCONbits = 0x44
                    0x0046                  MODCON = 0x46
                    0x0046                  _MODCON = 0x46
                    0x0046                  _MODCONbits = 0x46
                    0x0048                  XMODSRT = 0x48
                    0x0048                  _XMODSRT = 0x48
                    0x004a                  XMODEND = 0x4a
                    0x004a                  _XMODEND = 0x4a
                    0x004c                  YMODSRT = 0x4c
                    0x004c                  _YMODSRT = 0x4c
                    0x004e                  YMODEND = 0x4e
                    0x004e                  _YMODEND = 0x4e
                    0x0050                  XBREV = 0x50
                    0x0050                  _XBREV = 0x50
                    0x0050                  _XBREVbits = 0x50
                    0x0052                  DISICNT = 0x52
                    0x0052                  _DISICNT = 0x52
                    0x0060                  CNEN1 = 0x60
                    0x0060                  _CNEN1 = 0x60
                    0x0060                  _CNEN1bits = 0x60
                    0x0062                  CNEN2 = 0x62
                    0x0062                  _CNEN2 = 0x62
                    0x0062                  _CNEN2bits = 0x62
                    0x0068                  CNPU1 = 0x68
                    0x0068                  _CNPU1 = 0x68
                    0x0068                  _CNPU1bits = 0x68
                    0x006a                  CNPU2 = 0x6a
                    0x006a                  _CNPU2 = 0x6a
                    0x006a                  _CNPU2bits = 0x6a
                    0x0080                  INTCON1 = 0x80
                    0x0080                  _INTCON1 = 0x80
                    0x0080                  _INTCON1bits = 0x80
                    0x0082                  INTCON2 = 0x82
                    0x0082                  _INTCON2 = 0x82
                    0x0082                  _INTCON2bits = 0x82
                    0x0084                  IFS0 = 0x84
                    0x0084                  _IFS0 = 0x84
                    0x0084                  _IFS0bits = 0x84
                    0x0086                  IFS1 = 0x86
                    0x0086                  _IFS1 = 0x86
                    0x0086                  _IFS1bits = 0x86
                    0x0088                  IFS2 = 0x88
                    0x0088                  _IFS2 = 0x88
                    0x0088                  _IFS2bits = 0x88
                    0x008a                  IFS3 = 0x8a
                    0x008a                  _IFS3 = 0x8a
                    0x008a                  _IFS3bits = 0x8a
                    0x008c                  IFS4 = 0x8c
                    0x008c                  _IFS4 = 0x8c
                    0x008c                  _IFS4bits = 0x8c
                    0x0094                  IEC0 = 0x94
                    0x0094                  _IEC0 = 0x94
                    0x0094                  _IEC0bits = 0x94
                    0x0096                  IEC1 = 0x96
                    0x0096                  _IEC1 = 0x96
                    0x0096                  _IEC1bits = 0x96
                    0x0098                  IEC2 = 0x98
                    0x0098                  _IEC2 = 0x98
                    0x0098                  _IEC2bits = 0x98
                    0x009a                  IEC3 = 0x9a
                    0x009a                  _IEC3 = 0x9a
                    0x009a                  _IEC3bits = 0x9a
                    0x009c                  IEC4 = 0x9c
                    0x009c                  _IEC4 = 0x9c
                    0x009c                  _IEC4bits = 0x9c
                    0x00a4                  IPC0 = 0xa4
                    0x00a4                  _IPC0 = 0xa4
                    0x00a4                  _IPC0bits = 0xa4
                    0x00a6                  IPC1 = 0xa6
                    0x00a6                  _IPC1 = 0xa6
                    0x00a6                  _IPC1bits = 0xa6
                    0x00a8                  IPC2 = 0xa8
                    0x00a8                  _IPC2 = 0xa8
                    0x00a8                  _IPC2bits = 0xa8
                    0x00aa                  IPC3 = 0xaa
                    0x00aa                  _IPC3 = 0xaa
                    0x00aa                  _IPC3bits = 0xaa
                    0x00ac                  IPC4 = 0xac
                    0x00ac                  _IPC4 = 0xac
                    0x00ac                  _IPC4bits = 0xac
                    0x00ae                  IPC5 = 0xae
                    0x00ae                  _IPC5 = 0xae
                    0x00ae                  _IPC5bits = 0xae
                    0x00b0                  IPC6 = 0xb0
                    0x00b0                  _IPC6 = 0xb0
                    0x00b0                  _IPC6bits = 0xb0
                    0x00b2                  IPC7 = 0xb2
                    0x00b2                  _IPC7 = 0xb2
                    0x00b2                  _IPC7bits = 0xb2
                    0x00b4                  IPC8 = 0xb4
                    0x00b4                  _IPC8 = 0xb4
                    0x00b4                  _IPC8bits = 0xb4
                    0x00b6                  IPC9 = 0xb6
                    0x00b6                  _IPC9 = 0xb6
                    0x00b6                  _IPC9bits = 0xb6
                    0x00b8                  IPC10 = 0xb8
                    0x00b8                  _IPC10 = 0xb8
                    0x00b8                  _IPC10bits = 0xb8
                    0x00ba                  IPC11 = 0xba
                    0x00ba                  _IPC11 = 0xba
                    0x00ba                  _IPC11bits = 0xba
                    0x00bc                  IPC12 = 0xbc
                    0x00bc                  _IPC12 = 0xbc
                    0x00bc                  _IPC12bits = 0xbc
                    0x00be                  IPC13 = 0xbe
                    0x00be                  _IPC13 = 0xbe
                    0x00be                  _IPC13bits = 0xbe
                    0x00c0                  IPC14 = 0xc0
                    0x00c0                  _IPC14 = 0xc0
                    0x00c0                  _IPC14bits = 0xc0
                    0x00c2                  IPC15 = 0xc2
                    0x00c2                  _IPC15 = 0xc2
                    0x00c2                  _IPC15bits = 0xc2
                    0x00c4                  IPC16 = 0xc4
                    0x00c4                  _IPC16 = 0xc4
                    0x00c4                  _IPC16bits = 0xc4
                    0x00c6                  IPC17 = 0xc6
                    0x00c6                  _IPC17 = 0xc6
                    0x00c6                  _IPC17bits = 0xc6
                    0x00e0                  INTTREG = 0xe0
                    0x00e0                  _INTTREG = 0xe0
                    0x00e0                  _INTTREGbits = 0xe0
                    0x0100                  TMR1 = 0x100
                    0x0100                  _TMR1 = 0x100
                    0x0102                  PR1 = 0x102
                    0x0102                  _PR1 = 0x102
                    0x0104                  T1CON = 0x104
                    0x0104                  _T1CON = 0x104
                    0x0104                  _T1CONbits = 0x104
                    0x0106                  TMR2 = 0x106
                    0x0106                  _TMR2 = 0x106
                    0x0108                  TMR3HLD = 0x108
                    0x0108                  _TMR3HLD = 0x108
                    0x010a                  TMR3 = 0x10a
                    0x010a                  _TMR3 = 0x10a
                    0x010c                  PR2 = 0x10c
                    0x010c                  _PR2 = 0x10c
                    0x010e                  PR3 = 0x10e
                    0x010e                  _PR3 = 0x10e
                    0x0110                  T2CON = 0x110
                    0x0110                  _T2CON = 0x110
                    0x0110                  _T2CONbits = 0x110
                    0x0112                  T3CON = 0x112
                    0x0112                  _T3CON = 0x112
                    0x0112                  _T3CONbits = 0x112
                    0x0114                  TMR4 = 0x114
                    0x0114                  _TMR4 = 0x114
                    0x0116                  TMR5HLD = 0x116
                    0x0116                  _TMR5HLD = 0x116
                    0x0118                  TMR5 = 0x118
                    0x0118                  _TMR5 = 0x118
                    0x011a                  PR4 = 0x11a
                    0x011a                  _PR4 = 0x11a
                    0x011c                  PR5 = 0x11c
                    0x011c                  _PR5 = 0x11c
                    0x011e                  T4CON = 0x11e
                    0x011e                  _T4CON = 0x11e
                    0x011e                  _T4CONbits = 0x11e
                    0x0120                  T5CON = 0x120
                    0x0120                  _T5CON = 0x120
                    0x0120                  _T5CONbits = 0x120
                    0x0122                  TMR6 = 0x122
                    0x0122                  _TMR6 = 0x122
                    0x0124                  TMR7HLD = 0x124
                    0x0124                  _TMR7HLD = 0x124
                    0x0126                  TMR7 = 0x126
                    0x0126                  _TMR7 = 0x126
                    0x0128                  PR6 = 0x128
                    0x0128                  _PR6 = 0x128
                    0x012a                  PR7 = 0x12a
                    0x012a                  _PR7 = 0x12a
                    0x012c                  T6CON = 0x12c
                    0x012c                  _T6CON = 0x12c
                    0x012c                  _T6CONbits = 0x12c
                    0x012e                  T7CON = 0x12e
                    0x012e                  _T7CON = 0x12e
                    0x012e                  _T7CONbits = 0x12e
                    0x0130                  TMR8 = 0x130
                    0x0130                  _TMR8 = 0x130
                    0x0132                  TMR9HLD = 0x132
                    0x0132                  _TMR9HLD = 0x132
                    0x0134                  TMR9 = 0x134
                    0x0134                  _TMR9 = 0x134
                    0x0136                  PR8 = 0x136
                    0x0136                  _PR8 = 0x136
                    0x0138                  PR9 = 0x138
                    0x0138                  _PR9 = 0x138
                    0x013a                  T8CON = 0x13a
                    0x013a                  _T8CON = 0x13a
                    0x013a                  _T8CONbits = 0x13a
                    0x013c                  T9CON = 0x13c
                    0x013c                  _T9CON = 0x13c
                    0x013c                  _T9CONbits = 0x13c
                    0x0140                  IC1BUF = 0x140
                    0x0140                  _IC1BUF = 0x140
                    0x0142                  IC1CON = 0x142
                    0x0142                  _IC1CON = 0x142
                    0x0142                  _IC1CONbits = 0x142
                    0x0144                  IC2BUF = 0x144
                    0x0144                  _IC2BUF = 0x144
                    0x0146                  IC2CON = 0x146
                    0x0146                  _IC2CON = 0x146
                    0x0146                  _IC2CONbits = 0x146
                    0x0148                  IC3BUF = 0x148
                    0x0148                  _IC3BUF = 0x148
                    0x014a                  IC3CON = 0x14a
                    0x014a                  _IC3CON = 0x14a
                    0x014a                  _IC3CONbits = 0x14a
                    0x014c                  IC4BUF = 0x14c
                    0x014c                  _IC4BUF = 0x14c
                    0x014e                  IC4CON = 0x14e
                    0x014e                  _IC4CON = 0x14e
                    0x014e                  _IC4CONbits = 0x14e
                    0x0150                  IC5BUF = 0x150
                    0x0150                  _IC5BUF = 0x150
                    0x0152                  IC5CON = 0x152
                    0x0152                  _IC5CON = 0x152
                    0x0152                  _IC5CONbits = 0x152
                    0x0154                  IC6BUF = 0x154
                    0x0154                  _IC6BUF = 0x154
                    0x0156                  IC6CON = 0x156
                    0x0156                  _IC6CON = 0x156
                    0x0156                  _IC6CONbits = 0x156
                    0x0158                  IC7BUF = 0x158
                    0x0158                  _IC7BUF = 0x158
                    0x015a                  IC7CON = 0x15a
                    0x015a                  _IC7CON = 0x15a
                    0x015a                  _IC7CONbits = 0x15a
                    0x015c                  IC8BUF = 0x15c
                    0x015c                  _IC8BUF = 0x15c
                    0x015e                  IC8CON = 0x15e
                    0x015e                  _IC8CON = 0x15e
                    0x015e                  _IC8CONbits = 0x15e
                    0x0180                  OC1RS = 0x180
                    0x0180                  _OC1RS = 0x180
                    0x0182                  OC1R = 0x182
                    0x0182                  _OC1R = 0x182
                    0x0184                  OC1CON = 0x184
                    0x0184                  _OC1CON = 0x184
                    0x0184                  _OC1CONbits = 0x184
                    0x0186                  OC2RS = 0x186
                    0x0186                  _OC2RS = 0x186
                    0x0188                  OC2R = 0x188
                    0x0188                  _OC2R = 0x188
                    0x018a                  OC2CON = 0x18a
                    0x018a                  _OC2CON = 0x18a
                    0x018a                  _OC2CONbits = 0x18a
                    0x018c                  OC3RS = 0x18c
                    0x018c                  _OC3RS = 0x18c
                    0x018e                  OC3R = 0x18e
                    0x018e                  _OC3R = 0x18e
                    0x0190                  OC3CON = 0x190
                    0x0190                  _OC3CON = 0x190
                    0x0190                  _OC3CONbits = 0x190
                    0x0192                  OC4RS = 0x192
                    0x0192                  _OC4RS = 0x192
                    0x0194                  OC4R = 0x194
                    0x0194                  _OC4R = 0x194
                    0x0196                  OC4CON = 0x196
                    0x0196                  _OC4CON = 0x196
                    0x0196                  _OC4CONbits = 0x196
                    0x0198                  OC5RS = 0x198
                    0x0198                  _OC5RS = 0x198
                    0x019a                  OC5R = 0x19a
                    0x019a                  _OC5R = 0x19a
                    0x019c                  OC5CON = 0x19c
                    0x019c                  _OC5CON = 0x19c
                    0x019c                  _OC5CONbits = 0x19c
                    0x019e                  OC6RS = 0x19e
                    0x019e                  _OC6RS = 0x19e
                    0x01a0                  OC6R = 0x1a0
                    0x01a0                  _OC6R = 0x1a0
                    0x01a2                  OC6CON = 0x1a2
                    0x01a2                  _OC6CON = 0x1a2
                    0x01a2                  _OC6CONbits = 0x1a2
                    0x01a4                  OC7RS = 0x1a4
                    0x01a4                  _OC7RS = 0x1a4
                    0x01a6                  OC7R = 0x1a6
                    0x01a6                  _OC7R = 0x1a6
                    0x01a8                  OC7CON = 0x1a8
                    0x01a8                  _OC7CON = 0x1a8
                    0x01a8                  _OC7CONbits = 0x1a8
                    0x01aa                  OC8RS = 0x1aa
                    0x01aa                  _OC8RS = 0x1aa
                    0x01ac                  OC8R = 0x1ac
                    0x01ac                  _OC8R = 0x1ac
                    0x01ae                  OC8CON = 0x1ae
                    0x01ae                  _OC8CON = 0x1ae
                    0x01ae                  _OC8CONbits = 0x1ae
                    0x0200                  I2C1RCV = 0x200
                    0x0200                  _I2C1RCV = 0x200
                    0x0200                  I2CRCV = 0x200
                    0x0200                  _I2CRCV = 0x200
                    0x0202                  I2C1TRN = 0x202
                    0x0202                  _I2C1TRN = 0x202
                    0x0202                  I2CTRN = 0x202
                    0x0202                  _I2CTRN = 0x202
                    0x0204                  I2C1BRG = 0x204
                    0x0204                  _I2C1BRG = 0x204
                    0x0206                  I2C1CON = 0x206
                    0x0206                  _I2C1CON = 0x206
                    0x0206                  _I2C1CONbits = 0x206
                    0x0206                  I2CCON = 0x206
                    0x0206                  _I2CCON = 0x206
                    0x0206                  _I2CCONbits = 0x206
                    0x0208                  I2C1STAT = 0x208
                    0x0208                  _I2C1STAT = 0x208
                    0x0208                  _I2C1STATbits = 0x208
                    0x0208                  I2CSTAT = 0x208
                    0x0208                  _I2CSTAT = 0x208
                    0x0208                  _I2CSTATbits = 0x208
                    0x020a                  I2C1ADD = 0x20a
                    0x020a                  _I2C1ADD = 0x20a
                    0x020a                  I2CADD = 0x20a
                    0x020a                  _I2CADD = 0x20a
                    0x020c                  I2C1MSK = 0x20c
                    0x020c                  _I2C1MSK = 0x20c
                    0x0210                  I2C2RCV = 0x210
                    0x0210                  _I2C2RCV = 0x210
                    0x0212                  I2C2TRN = 0x212
                    0x0212                  _I2C2TRN = 0x212
                    0x0214                  I2C2BRG = 0x214
                    0x0214                  _I2C2BRG = 0x214
                    0x0216                  I2C2CON = 0x216
                    0x0216                  _I2C2CON = 0x216
                    0x0216                  _I2C2CONbits = 0x216
                    0x0218                  I2C2STAT = 0x218
                    0x0218                  _I2C2STAT = 0x218
                    0x0218                  _I2C2STATbits = 0x218
                    0x021a                  I2C2ADD = 0x21a
                    0x021a                  _I2C2ADD = 0x21a
                    0x021c                  I2C2MSK = 0x21c
                    0x021c                  _I2C2MSK = 0x21c
                    0x0220                  U1MODE = 0x220
                    0x0220                  _U1MODE = 0x220
                    0x0220                  _U1MODEbits = 0x220
                    0x0222                  U1STA = 0x222
                    0x0222                  _U1STA = 0x222
                    0x0222                  _U1STAbits = 0x222
                    0x0224                  U1TXREG = 0x224
                    0x0224                  _U1TXREG = 0x224
                    0x0224                  _U1TXREGbits = 0x224
                    0x0226                  U1RXREG = 0x226
                    0x0226                  _U1RXREG = 0x226
                    0x0226                  _U1RXREGbits = 0x226
                    0x0228                  U1BRG = 0x228
                    0x0228                  _U1BRG = 0x228
                    0x0230                  U2MODE = 0x230
                    0x0230                  _U2MODE = 0x230
                    0x0230                  _U2MODEbits = 0x230
                    0x0232                  U2STA = 0x232
                    0x0232                  _U2STA = 0x232
                    0x0232                  _U2STAbits = 0x232
                    0x0234                  U2TXREG = 0x234
                    0x0234                  _U2TXREG = 0x234
                    0x0234                  _U2TXREGbits = 0x234
                    0x0236                  U2RXREG = 0x236
                    0x0236                  _U2RXREG = 0x236
                    0x0236                  _U2RXREGbits = 0x236
                    0x0238                  U2BRG = 0x238
                    0x0238                  _U2BRG = 0x238
                    0x0240                  SPI1STAT = 0x240
                    0x0240                  _SPI1STAT = 0x240
                    0x0240                  _SPI1STATbits = 0x240
                    0x0242                  SPI1CON1 = 0x242
                    0x0242                  _SPI1CON1 = 0x242
                    0x0242                  _SPI1CON1bits = 0x242
                    0x0244                  SPI1CON2 = 0x244
                    0x0244                  _SPI1CON2 = 0x244
                    0x0244                  _SPI1CON2bits = 0x244
                    0x0248                  SPI1BUF = 0x248
                    0x0248                  _SPI1BUF = 0x248
                    0x0260                  SPI2STAT = 0x260
                    0x0260                  _SPI2STAT = 0x260
                    0x0260                  _SPI2STATbits = 0x260
                    0x0262                  SPI2CON1 = 0x262
                    0x0262                  _SPI2CON1 = 0x262
                    0x0262                  _SPI2CON1bits = 0x262
                    0x0264                  SPI2CON2 = 0x264
                    0x0264                  _SPI2CON2 = 0x264
                    0x0264                  _SPI2CON2bits = 0x264
                    0x0268                  SPI2BUF = 0x268
                    0x0268                  _SPI2BUF = 0x268
                    0x0280                  DCICON1 = 0x280
                    0x0280                  _DCICON1 = 0x280
                    0x0280                  _DCICON1bits = 0x280
                    0x0282                  DCICON2 = 0x282
                    0x0282                  _DCICON2 = 0x282
                    0x0282                  _DCICON2bits = 0x282
                    0x0284                  DCICON3 = 0x284
                    0x0284                  _DCICON3 = 0x284
                    0x0284                  _DCICON3bits = 0x284
                    0x0286                  DCISTAT = 0x286
                    0x0286                  _DCISTAT = 0x286
                    0x0286                  _DCISTATbits = 0x286
                    0x0288                  TSCON = 0x288
                    0x0288                  _TSCON = 0x288
                    0x0288                  _TSCONbits = 0x288
                    0x028c                  RSCON = 0x28c
                    0x028c                  _RSCON = 0x28c
                    0x028c                  _RSCONbits = 0x28c
                    0x0290                  RXBUF0 = 0x290
                    0x0290                  _RXBUF0 = 0x290
                    0x0292                  RXBUF1 = 0x292
                    0x0292                  _RXBUF1 = 0x292
                    0x0294                  RXBUF2 = 0x294
                    0x0294                  _RXBUF2 = 0x294
                    0x0296                  RXBUF3 = 0x296
                    0x0296                  _RXBUF3 = 0x296
                    0x0298                  TXBUF0 = 0x298
                    0x0298                  _TXBUF0 = 0x298
                    0x029a                  TXBUF1 = 0x29a
                    0x029a                  _TXBUF1 = 0x29a
                    0x029c                  TXBUF2 = 0x29c
                    0x029c                  _TXBUF2 = 0x29c
                    0x029e                  TXBUF3 = 0x29e
                    0x029e                  _TXBUF3 = 0x29e
                    0x02c0                  TRISA = 0x2c0
                    0x02c0                  _TRISA = 0x2c0
                    0x02c0                  _TRISAbits = 0x2c0
                    0x02c2                  PORTA = 0x2c2
                    0x02c2                  _PORTA = 0x2c2
                    0x02c2                  _PORTAbits = 0x2c2
                    0x02c4                  LATA = 0x2c4
                    0x02c4                  _LATA = 0x2c4
                    0x02c4                  _LATAbits = 0x2c4
                    0x02c6                  TRISB = 0x2c6
                    0x02c6                  _TRISB = 0x2c6
                    0x02c6                  _TRISBbits = 0x2c6
                    0x02c8                  PORTB = 0x2c8
                    0x02c8                  _PORTB = 0x2c8
                    0x02c8                  _PORTBbits = 0x2c8
                    0x02ca                  LATB = 0x2ca
                    0x02ca                  _LATB = 0x2ca
                    0x02ca                  _LATBbits = 0x2ca
                    0x02cc                  TRISC = 0x2cc
                    0x02cc                  _TRISC = 0x2cc
                    0x02cc                  _TRISCbits = 0x2cc
                    0x02ce                  PORTC = 0x2ce
                    0x02ce                  _PORTC = 0x2ce
                    0x02ce                  _PORTCbits = 0x2ce
                    0x02d0                  LATC = 0x2d0
                    0x02d0                  _LATC = 0x2d0
                    0x02d0                  _LATCbits = 0x2d0
                    0x02d2                  TRISD = 0x2d2
                    0x02d2                  _TRISD = 0x2d2
                    0x02d2                  _TRISDbits = 0x2d2
                    0x02d4                  PORTD = 0x2d4
                    0x02d4                  _PORTD = 0x2d4
                    0x02d4                  _PORTDbits = 0x2d4
                    0x02d6                  LATD = 0x2d6
                    0x02d6                  _LATD = 0x2d6
                    0x02d6                  _LATDbits = 0x2d6
                    0x02d8                  TRISE = 0x2d8
                    0x02d8                  _TRISE = 0x2d8
                    0x02d8                  _TRISEbits = 0x2d8
                    0x02da                  PORTE = 0x2da
                    0x02da                  _PORTE = 0x2da
                    0x02da                  _PORTEbits = 0x2da
                    0x02dc                  LATE = 0x2dc
                    0x02dc                  _LATE = 0x2dc
                    0x02dc                  _LATEbits = 0x2dc
                    0x02de                  TRISF = 0x2de
                    0x02de                  _TRISF = 0x2de
                    0x02de                  _TRISFbits = 0x2de
                    0x02e0                  PORTF = 0x2e0
                    0x02e0                  _PORTF = 0x2e0
                    0x02e0                  _PORTFbits = 0x2e0
                    0x02e2                  LATF = 0x2e2
                    0x02e2                  _LATF = 0x2e2
                    0x02e2                  _LATFbits = 0x2e2
                    0x02e4                  TRISG = 0x2e4
                    0x02e4                  _TRISG = 0x2e4
                    0x02e4                  _TRISGbits = 0x2e4
                    0x02e6                  PORTG = 0x2e6
                    0x02e6                  _PORTG = 0x2e6
                    0x02e6                  _PORTGbits = 0x2e6
                    0x02e8                  LATG = 0x2e8
                    0x02e8                  _LATG = 0x2e8
                    0x02e8                  _LATGbits = 0x2e8
                    0x0300                  ADC1BUF0 = 0x300
                    0x0300                  _ADC1BUF0 = 0x300
                    0x0300                  ADCBUF0 = 0x300
                    0x0300                  _ADCBUF0 = 0x300
                    0x0320                  AD1CON1 = 0x320
                    0x0320                  _AD1CON1 = 0x320
                    0x0320                  _AD1CON1bits = 0x320
                    0x0322                  AD1CON2 = 0x322
                    0x0322                  _AD1CON2 = 0x322
                    0x0322                  _AD1CON2bits = 0x322
                    0x0324                  AD1CON3 = 0x324
                    0x0324                  _AD1CON3 = 0x324
                    0x0324                  _AD1CON3bits = 0x324
                    0x0326                  AD1CHS123 = 0x326
                    0x0326                  _AD1CHS123 = 0x326
                    0x0326                  _AD1CHS123bits = 0x326
                    0x0328                  AD1CHS0 = 0x328
                    0x0328                  _AD1CHS0 = 0x328
                    0x0328                  _AD1CHS0bits = 0x328
                    0x032a                  AD1PCFGH = 0x32a
                    0x032a                  _AD1PCFGH = 0x32a
                    0x032a                  _AD1PCFGHbits = 0x32a
                    0x032c                  AD1PCFGL = 0x32c
                    0x032c                  _AD1PCFGL = 0x32c
                    0x032c                  _AD1PCFGLbits = 0x32c
                    0x032c                  ADPCFG = 0x32c
                    0x032c                  _ADPCFG = 0x32c
                    0x032c                  _ADPCFGbits = 0x32c
                    0x032e                  AD1CSSH = 0x32e
                    0x032e                  _AD1CSSH = 0x32e
                    0x032e                  _AD1CSSHbits = 0x32e
                    0x0330                  AD1CSSL = 0x330
                    0x0330                  _AD1CSSL = 0x330
                    0x0330                  _AD1CSSLbits = 0x330
                    0x0332                  AD1CON4 = 0x332
                    0x0332                  _AD1CON4 = 0x332
                    0x0332                  _AD1CON4bits = 0x332
                    0x0340                  ADC2BUF0 = 0x340
                    0x0340                  _ADC2BUF0 = 0x340
                    0x0360                  AD2CON1 = 0x360
                    0x0360                  _AD2CON1 = 0x360
                    0x0360                  _AD2CON1bits = 0x360
                    0x0362                  AD2CON2 = 0x362
                    0x0362                  _AD2CON2 = 0x362
                    0x0362                  _AD2CON2bits = 0x362
                    0x0364                  AD2CON3 = 0x364
                    0x0364                  _AD2CON3 = 0x364
                    0x0364                  _AD2CON3bits = 0x364
                    0x0366                  AD2CHS123 = 0x366
                    0x0366                  _AD2CHS123 = 0x366
                    0x0366                  _AD2CHS123bits = 0x366
                    0x0368                  AD2CHS0 = 0x368
                    0x0368                  _AD2CHS0 = 0x368
                    0x0368                  _AD2CHS0bits = 0x368
                    0x036c                  AD2PCFGL = 0x36c
                    0x036c                  _AD2PCFGL = 0x36c
                    0x036c                  _AD2PCFGLbits = 0x36c
                    0x0370                  AD2CSSL = 0x370
                    0x0370                  _AD2CSSL = 0x370
                    0x0370                  _AD2CSSLbits = 0x370
                    0x0372                  AD2CON4 = 0x372
                    0x0372                  _AD2CON4 = 0x372
                    0x0372                  _AD2CON4bits = 0x372
                    0x0380                  DMA0CON = 0x380
                    0x0380                  _DMA0CON = 0x380
                    0x0380                  _DMA0CONbits = 0x380
                    0x0382                  DMA0REQ = 0x382
                    0x0382                  _DMA0REQ = 0x382
                    0x0382                  _DMA0REQbits = 0x382
                    0x0384                  DMA0STA = 0x384
                    0x0384                  _DMA0STA = 0x384
                    0x0386                  DMA0STB = 0x386
                    0x0386                  _DMA0STB = 0x386
                    0x0388                  DMA0PAD = 0x388
                    0x0388                  _DMA0PAD = 0x388
                    0x038a                  DMA0CNT = 0x38a
                    0x038a                  _DMA0CNT = 0x38a
                    0x038c                  DMA1CON = 0x38c
                    0x038c                  _DMA1CON = 0x38c
                    0x038c                  _DMA1CONbits = 0x38c
                    0x038e                  DMA1REQ = 0x38e
                    0x038e                  _DMA1REQ = 0x38e
                    0x038e                  _DMA1REQbits = 0x38e
                    0x0390                  DMA1STA = 0x390
                    0x0390                  _DMA1STA = 0x390
                    0x0392                  DMA1STB = 0x392
                    0x0392                  _DMA1STB = 0x392
                    0x0394                  DMA1PAD = 0x394
                    0x0394                  _DMA1PAD = 0x394
                    0x0396                  DMA1CNT = 0x396
                    0x0396                  _DMA1CNT = 0x396
                    0x0398                  DMA2CON = 0x398
                    0x0398                  _DMA2CON = 0x398
                    0x0398                  _DMA2CONbits = 0x398
                    0x039a                  DMA2REQ = 0x39a
                    0x039a                  _DMA2REQ = 0x39a
                    0x039a                  _DMA2REQbits = 0x39a
                    0x039c                  DMA2STA = 0x39c
                    0x039c                  _DMA2STA = 0x39c
                    0x039e                  DMA2STB = 0x39e
                    0x039e                  _DMA2STB = 0x39e
                    0x03a0                  DMA2PAD = 0x3a0
                    0x03a0                  _DMA2PAD = 0x3a0
                    0x03a2                  DMA2CNT = 0x3a2
                    0x03a2                  _DMA2CNT = 0x3a2
                    0x03a4                  DMA3CON = 0x3a4
                    0x03a4                  _DMA3CON = 0x3a4
                    0x03a4                  _DMA3CONbits = 0x3a4
                    0x03a6                  DMA3REQ = 0x3a6
                    0x03a6                  _DMA3REQ = 0x3a6
                    0x03a6                  _DMA3REQbits = 0x3a6
                    0x03a8                  DMA3STA = 0x3a8
                    0x03a8                  _DMA3STA = 0x3a8
                    0x03aa                  DMA3STB = 0x3aa
                    0x03aa                  _DMA3STB = 0x3aa
                    0x03ac                  DMA3PAD = 0x3ac
                    0x03ac                  _DMA3PAD = 0x3ac
                    0x03ae                  DMA3CNT = 0x3ae
                    0x03ae                  _DMA3CNT = 0x3ae
                    0x03b0                  DMA4CON = 0x3b0
                    0x03b0                  _DMA4CON = 0x3b0
                    0x03b0                  _DMA4CONbits = 0x3b0
                    0x03b2                  DMA4REQ = 0x3b2
                    0x03b2                  _DMA4REQ = 0x3b2
                    0x03b2                  _DMA4REQbits = 0x3b2
                    0x03b4                  DMA4STA = 0x3b4
                    0x03b4                  _DMA4STA = 0x3b4
                    0x03b6                  DMA4STB = 0x3b6
                    0x03b6                  _DMA4STB = 0x3b6
                    0x03b8                  DMA4PAD = 0x3b8
                    0x03b8                  _DMA4PAD = 0x3b8
                    0x03ba                  DMA4CNT = 0x3ba
                    0x03ba                  _DMA4CNT = 0x3ba
                    0x03bc                  DMA5CON = 0x3bc
                    0x03bc                  _DMA5CON = 0x3bc
                    0x03bc                  _DMA5CONbits = 0x3bc
                    0x03be                  DMA5REQ = 0x3be
                    0x03be                  _DMA5REQ = 0x3be
                    0x03be                  _DMA5REQbits = 0x3be
                    0x03c0                  DMA5STA = 0x3c0
                    0x03c0                  _DMA5STA = 0x3c0
                    0x03c2                  DMA5STB = 0x3c2
                    0x03c2                  _DMA5STB = 0x3c2
                    0x03c4                  DMA5PAD = 0x3c4
                    0x03c4                  _DMA5PAD = 0x3c4
                    0x03c6                  DMA5CNT = 0x3c6
                    0x03c6                  _DMA5CNT = 0x3c6
                    0x03c8                  DMA6CON = 0x3c8
                    0x03c8                  _DMA6CON = 0x3c8
                    0x03c8                  _DMA6CONbits = 0x3c8
                    0x03ca                  DMA6REQ = 0x3ca
                    0x03ca                  _DMA6REQ = 0x3ca
                    0x03ca                  _DMA6REQbits = 0x3ca
                    0x03cc                  DMA6STA = 0x3cc
                    0x03cc                  _DMA6STA = 0x3cc
                    0x03ce                  DMA6STB = 0x3ce
                    0x03ce                  _DMA6STB = 0x3ce
                    0x03d0                  DMA6PAD = 0x3d0
                    0x03d0                  _DMA6PAD = 0x3d0
                    0x03d2                  DMA6CNT = 0x3d2
                    0x03d2                  _DMA6CNT = 0x3d2
                    0x03d4                  DMA7CON = 0x3d4
                    0x03d4                  _DMA7CON = 0x3d4
                    0x03d4                  _DMA7CONbits = 0x3d4
                    0x03d6                  DMA7REQ = 0x3d6
                    0x03d6                  _DMA7REQ = 0x3d6
                    0x03d6                  _DMA7REQbits = 0x3d6
                    0x03d8                  DMA7STA = 0x3d8
                    0x03d8                  _DMA7STA = 0x3d8
                    0x03da                  DMA7STB = 0x3da
                    0x03da                  _DMA7STB = 0x3da
                    0x03dc                  DMA7PAD = 0x3dc
                    0x03dc                  _DMA7PAD = 0x3dc
                    0x03de                  DMA7CNT = 0x3de
                    0x03de                  _DMA7CNT = 0x3de
                    0x03e0                  DMACS0 = 0x3e0
                    0x03e0                  _DMACS0 = 0x3e0
                    0x03e0                  _DMACS0bits = 0x3e0
                    0x03e2                  DMACS1 = 0x3e2
                    0x03e2                  _DMACS1 = 0x3e2
                    0x03e2                  _DMACS1bits = 0x3e2
                    0x03e4                  DSADR = 0x3e4
                    0x03e4                  _DSADR = 0x3e4
                    0x0400                  C1CTRL1 = 0x400
                    0x0400                  _C1CTRL1 = 0x400
                    0x0400                  _C1CTRL1bits = 0x400
                    0x0402                  C1CTRL2 = 0x402
                    0x0402                  _C1CTRL2 = 0x402
                    0x0402                  _C1CTRL2bits = 0x402
                    0x0404                  C1VEC = 0x404
                    0x0404                  _C1VEC = 0x404
                    0x0404                  _C1VECbits = 0x404
                    0x0406                  C1FCTRL = 0x406
                    0x0406                  _C1FCTRL = 0x406
                    0x0406                  _C1FCTRLbits = 0x406
                    0x0408                  C1FIFO = 0x408
                    0x0408                  _C1FIFO = 0x408
                    0x0408                  _C1FIFObits = 0x408
                    0x040a                  C1INTF = 0x40a
                    0x040a                  _C1INTF = 0x40a
                    0x040a                  _C1INTFbits = 0x40a
                    0x040c                  C1INTE = 0x40c
                    0x040c                  _C1INTE = 0x40c
                    0x040c                  _C1INTEbits = 0x40c
                    0x040e                  C1EC = 0x40e
                    0x040e                  _C1EC = 0x40e
                    0x040e                  _C1ECbits = 0x40e
                    0x040e                  C1RERRCNT = 0x40e
                    0x040e                  _C1RERRCNT = 0x40e
                    0x040f                  C1TERRCNT = 0x40f
                    0x040f                  _C1TERRCNT = 0x40f
                    0x0410                  C1CFG1 = 0x410
                    0x0410                  _C1CFG1 = 0x410
                    0x0410                  _C1CFG1bits = 0x410
                    0x0412                  C1CFG2 = 0x412
                    0x0412                  _C1CFG2 = 0x412
                    0x0412                  _C1CFG2bits = 0x412
                    0x0414                  C1FEN1 = 0x414
                    0x0414                  _C1FEN1 = 0x414
                    0x0414                  _C1FEN1bits = 0x414
                    0x0418                  C1FMSKSEL1 = 0x418
                    0x0418                  _C1FMSKSEL1 = 0x418
                    0x0418                  _C1FMSKSEL1bits = 0x418
                    0x041a                  C1FMSKSEL2 = 0x41a
                    0x041a                  _C1FMSKSEL2 = 0x41a
                    0x041a                  _C1FMSKSEL2bits = 0x41a
                    0x0420                  C1BUFPNT1 = 0x420
                    0x0420                  _C1BUFPNT1 = 0x420
                    0x0420                  _C1BUFPNT1bits = 0x420
                    0x0420                  C1RXFUL1 = 0x420
                    0x0420                  _C1RXFUL1 = 0x420
                    0x0420                  _C1RXFUL1bits = 0x420
                    0x0422                  C1BUFPNT2 = 0x422
                    0x0422                  _C1BUFPNT2 = 0x422
                    0x0422                  _C1BUFPNT2bits = 0x422
                    0x0422                  C1RXFUL2 = 0x422
                    0x0422                  _C1RXFUL2 = 0x422
                    0x0422                  _C1RXFUL2bits = 0x422
                    0x0424                  C1BUFPNT3 = 0x424
                    0x0424                  _C1BUFPNT3 = 0x424
                    0x0424                  _C1BUFPNT3bits = 0x424
                    0x0426                  C1BUFPNT4 = 0x426
                    0x0426                  _C1BUFPNT4 = 0x426
                    0x0426                  _C1BUFPNT4bits = 0x426
                    0x0428                  C1RXOVF1 = 0x428
                    0x0428                  _C1RXOVF1 = 0x428
                    0x0428                  _C1RXOVF1bits = 0x428
                    0x042a                  C1RXOVF2 = 0x42a
                    0x042a                  _C1RXOVF2 = 0x42a
                    0x042a                  _C1RXOVF2bits = 0x42a
                    0x0430                  C1RXM0SID = 0x430
                    0x0430                  _C1RXM0SID = 0x430
                    0x0430                  _C1RXM0SIDbits = 0x430
                    0x0430                  C1TR01CON = 0x430
                    0x0430                  _C1TR01CON = 0x430
                    0x0430                  _C1TR01CONbits = 0x430
                    0x0432                  C1RXM0EID = 0x432
                    0x0432                  _C1RXM0EID = 0x432
                    0x0432                  _C1RXM0EIDbits = 0x432
                    0x0432                  C1TR23CON = 0x432
                    0x0432                  _C1TR23CON = 0x432
                    0x0432                  _C1TR23CONbits = 0x432
                    0x0434                  C1RXM1SID = 0x434
                    0x0434                  _C1RXM1SID = 0x434
                    0x0434                  _C1RXM1SIDbits = 0x434
                    0x0434                  C1TR45CON = 0x434
                    0x0434                  _C1TR45CON = 0x434
                    0x0434                  _C1TR45CONbits = 0x434
                    0x0436                  C1RXM1EID = 0x436
                    0x0436                  _C1RXM1EID = 0x436
                    0x0436                  _C1RXM1EIDbits = 0x436
                    0x0436                  C1TR67CON = 0x436
                    0x0436                  _C1TR67CON = 0x436
                    0x0436                  _C1TR67CONbits = 0x436
                    0x0438                  C1RXM2SID = 0x438
                    0x0438                  _C1RXM2SID = 0x438
                    0x0438                  _C1RXM2SIDbits = 0x438
                    0x043a                  C1RXM2EID = 0x43a
                    0x043a                  _C1RXM2EID = 0x43a
                    0x043a                  _C1RXM2EIDbits = 0x43a
                    0x0440                  C1RXD = 0x440
                    0x0440                  _C1RXD = 0x440
                    0x0440                  C1RXF0SID = 0x440
                    0x0440                  _C1RXF0SID = 0x440
                    0x0440                  _C1RXF0SIDbits = 0x440
                    0x0442                  C1RXF0EID = 0x442
                    0x0442                  _C1RXF0EID = 0x442
                    0x0442                  _C1RXF0EIDbits = 0x442
                    0x0442                  C1TXD = 0x442
                    0x0442                  _C1TXD = 0x442
                    0x0444                  C1RXF1SID = 0x444
                    0x0444                  _C1RXF1SID = 0x444
                    0x0444                  _C1RXF1SIDbits = 0x444
                    0x0446                  C1RXF1EID = 0x446
                    0x0446                  _C1RXF1EID = 0x446
                    0x0446                  _C1RXF1EIDbits = 0x446
                    0x0448                  C1RXF2SID = 0x448
                    0x0448                  _C1RXF2SID = 0x448
                    0x0448                  _C1RXF2SIDbits = 0x448
                    0x044a                  C1RXF2EID = 0x44a
                    0x044a                  _C1RXF2EID = 0x44a
                    0x044a                  _C1RXF2EIDbits = 0x44a
                    0x044c                  C1RXF3SID = 0x44c
                    0x044c                  _C1RXF3SID = 0x44c
                    0x044c                  _C1RXF3SIDbits = 0x44c
                    0x044e                  C1RXF3EID = 0x44e
                    0x044e                  _C1RXF3EID = 0x44e
                    0x044e                  _C1RXF3EIDbits = 0x44e
                    0x0450                  C1RXF4SID = 0x450
                    0x0450                  _C1RXF4SID = 0x450
                    0x0450                  _C1RXF4SIDbits = 0x450
                    0x0452                  C1RXF4EID = 0x452
                    0x0452                  _C1RXF4EID = 0x452
                    0x0452                  _C1RXF4EIDbits = 0x452
                    0x0454                  C1RXF5SID = 0x454
                    0x0454                  _C1RXF5SID = 0x454
                    0x0454                  _C1RXF5SIDbits = 0x454
                    0x0456                  C1RXF5EID = 0x456
                    0x0456                  _C1RXF5EID = 0x456
                    0x0456                  _C1RXF5EIDbits = 0x456
                    0x0458                  C1RXF6SID = 0x458
                    0x0458                  _C1RXF6SID = 0x458
                    0x0458                  _C1RXF6SIDbits = 0x458
                    0x045a                  C1RXF6EID = 0x45a
                    0x045a                  _C1RXF6EID = 0x45a
                    0x045a                  _C1RXF6EIDbits = 0x45a
                    0x045c                  C1RXF7SID = 0x45c
                    0x045c                  _C1RXF7SID = 0x45c
                    0x045c                  _C1RXF7SIDbits = 0x45c
                    0x045e                  C1RXF7EID = 0x45e
                    0x045e                  _C1RXF7EID = 0x45e
                    0x045e                  _C1RXF7EIDbits = 0x45e
                    0x0460                  C1RXF8SID = 0x460
                    0x0460                  _C1RXF8SID = 0x460
                    0x0460                  _C1RXF8SIDbits = 0x460
                    0x0462                  C1RXF8EID = 0x462
                    0x0462                  _C1RXF8EID = 0x462
                    0x0462                  _C1RXF8EIDbits = 0x462
                    0x0464                  C1RXF9SID = 0x464
                    0x0464                  _C1RXF9SID = 0x464
                    0x0464                  _C1RXF9SIDbits = 0x464
                    0x0466                  C1RXF9EID = 0x466
                    0x0466                  _C1RXF9EID = 0x466
                    0x0466                  _C1RXF9EIDbits = 0x466
                    0x0468                  C1RXF10SID = 0x468
                    0x0468                  _C1RXF10SID = 0x468
                    0x0468                  _C1RXF10SIDbits = 0x468
                    0x046a                  C1RXF10EID = 0x46a
                    0x046a                  _C1RXF10EID = 0x46a
                    0x046a                  _C1RXF10EIDbits = 0x46a
                    0x046c                  C1RXF11SID = 0x46c
                    0x046c                  _C1RXF11SID = 0x46c
                    0x046c                  _C1RXF11SIDbits = 0x46c
                    0x046e                  C1RXF11EID = 0x46e
                    0x046e                  _C1RXF11EID = 0x46e
                    0x046e                  _C1RXF11EIDbits = 0x46e
                    0x0470                  C1RXF12SID = 0x470
                    0x0470                  _C1RXF12SID = 0x470
                    0x0470                  _C1RXF12SIDbits = 0x470
                    0x0472                  C1RXF12EID = 0x472
                    0x0472                  _C1RXF12EID = 0x472
                    0x0472                  _C1RXF12EIDbits = 0x472
                    0x0474                  C1RXF13SID = 0x474
                    0x0474                  _C1RXF13SID = 0x474
                    0x0474                  _C1RXF13SIDbits = 0x474
                    0x0476                  C1RXF13EID = 0x476
                    0x0476                  _C1RXF13EID = 0x476
                    0x0476                  _C1RXF13EIDbits = 0x476
                    0x0478                  C1RXF14SID = 0x478
                    0x0478                  _C1RXF14SID = 0x478
                    0x0478                  _C1RXF14SIDbits = 0x478
                    0x047a                  C1RXF14EID = 0x47a
                    0x047a                  _C1RXF14EID = 0x47a
                    0x047a                  _C1RXF14EIDbits = 0x47a
                    0x047c                  C1RXF15SID = 0x47c
                    0x047c                  _C1RXF15SID = 0x47c
                    0x047c                  _C1RXF15SIDbits = 0x47c
                    0x047e                  C1RXF15EID = 0x47e
                    0x047e                  _C1RXF15EID = 0x47e
                    0x047e                  _C1RXF15EIDbits = 0x47e
                    0x0500                  C2CTRL1 = 0x500
                    0x0500                  _C2CTRL1 = 0x500
                    0x0500                  _C2CTRL1bits = 0x500
                    0x0502                  C2CTRL2 = 0x502
                    0x0502                  _C2CTRL2 = 0x502
                    0x0502                  _C2CTRL2bits = 0x502
                    0x0504                  C2VEC = 0x504
                    0x0504                  _C2VEC = 0x504
                    0x0504                  _C2VECbits = 0x504
                    0x0506                  C2FCTRL = 0x506
                    0x0506                  _C2FCTRL = 0x506
                    0x0506                  _C2FCTRLbits = 0x506
                    0x0508                  C2FIFO = 0x508
                    0x0508                  _C2FIFO = 0x508
                    0x0508                  _C2FIFObits = 0x508
                    0x050a                  C2INTF = 0x50a
                    0x050a                  _C2INTF = 0x50a
                    0x050a                  _C2INTFbits = 0x50a
                    0x050c                  C2INTE = 0x50c
                    0x050c                  _C2INTE = 0x50c
                    0x050c                  _C2INTEbits = 0x50c
                    0x050e                  C2EC = 0x50e
                    0x050e                  _C2EC = 0x50e
                    0x050e                  _C2ECbits = 0x50e
                    0x050e                  C2RERRCNT = 0x50e
                    0x050e                  _C2RERRCNT = 0x50e
                    0x050f                  C2TERRCNT = 0x50f
                    0x050f                  _C2TERRCNT = 0x50f
                    0x0510                  C2CFG1 = 0x510
                    0x0510                  _C2CFG1 = 0x510
                    0x0510                  _C2CFG1bits = 0x510
                    0x0512                  C2CFG2 = 0x512
                    0x0512                  _C2CFG2 = 0x512
                    0x0512                  _C2CFG2bits = 0x512
                    0x0514                  C2FEN1 = 0x514
                    0x0514                  _C2FEN1 = 0x514
                    0x0514                  _C2FEN1bits = 0x514
                    0x0518                  C2FMSKSEL1 = 0x518
                    0x0518                  _C2FMSKSEL1 = 0x518
                    0x0518                  _C2FMSKSEL1bits = 0x518
                    0x051a                  C2FMSKSEL2 = 0x51a
                    0x051a                  _C2FMSKSEL2 = 0x51a
                    0x051a                  _C2FMSKSEL2bits = 0x51a
                    0x0520                  C2BUFPNT1 = 0x520
                    0x0520                  _C2BUFPNT1 = 0x520
                    0x0520                  _C2BUFPNT1bits = 0x520
                    0x0520                  C2RXFUL1 = 0x520
                    0x0520                  _C2RXFUL1 = 0x520
                    0x0520                  _C2RXFUL1bits = 0x520
                    0x0522                  C2BUFPNT2 = 0x522
                    0x0522                  _C2BUFPNT2 = 0x522
                    0x0522                  _C2BUFPNT2bits = 0x522
                    0x0522                  C2RXFUL2 = 0x522
                    0x0522                  _C2RXFUL2 = 0x522
                    0x0522                  _C2RXFUL2bits = 0x522
                    0x0524                  C2BUFPNT3 = 0x524
                    0x0524                  _C2BUFPNT3 = 0x524
                    0x0524                  _C2BUFPNT3bits = 0x524
                    0x0526                  C2BUFPNT4 = 0x526
                    0x0526                  _C2BUFPNT4 = 0x526
                    0x0526                  _C2BUFPNT4bits = 0x526
                    0x0528                  C2RXOVF1 = 0x528
                    0x0528                  _C2RXOVF1 = 0x528
                    0x0528                  _C2RXOVF1bits = 0x528
                    0x052a                  C2RXOVF2 = 0x52a
                    0x052a                  _C2RXOVF2 = 0x52a
                    0x052a                  _C2RXOVF2bits = 0x52a
                    0x0530                  C2RXM0SID = 0x530
                    0x0530                  _C2RXM0SID = 0x530
                    0x0530                  _C2RXM0SIDbits = 0x530
                    0x0530                  C2TR01CON = 0x530
                    0x0530                  _C2TR01CON = 0x530
                    0x0530                  _C2TR01CONbits = 0x530
                    0x0532                  C2RXM0EID = 0x532
                    0x0532                  _C2RXM0EID = 0x532
                    0x0532                  _C2RXM0EIDbits = 0x532
                    0x0532                  C2TR23CON = 0x532
                    0x0532                  _C2TR23CON = 0x532
                    0x0532                  _C2TR23CONbits = 0x532
                    0x0534                  C2RXM1SID = 0x534
                    0x0534                  _C2RXM1SID = 0x534
                    0x0534                  _C2RXM1SIDbits = 0x534
                    0x0534                  C2TR45CON = 0x534
                    0x0534                  _C2TR45CON = 0x534
                    0x0534                  _C2TR45CONbits = 0x534
                    0x0536                  C2RXM1EID = 0x536
                    0x0536                  _C2RXM1EID = 0x536
                    0x0536                  _C2RXM1EIDbits = 0x536
                    0x0536                  C2TR67CON = 0x536
                    0x0536                  _C2TR67CON = 0x536
                    0x0536                  _C2TR67CONbits = 0x536
                    0x0538                  C2RXM2SID = 0x538
                    0x0538                  _C2RXM2SID = 0x538
                    0x0538                  _C2RXM2SIDbits = 0x538
                    0x053a                  C2RXM2EID = 0x53a
                    0x053a                  _C2RXM2EID = 0x53a
                    0x053a                  _C2RXM2EIDbits = 0x53a
                    0x0540                  C2RXD = 0x540
                    0x0540                  _C2RXD = 0x540
                    0x0540                  C2RXF0SID = 0x540
                    0x0540                  _C2RXF0SID = 0x540
                    0x0540                  _C2RXF0SIDbits = 0x540
                    0x0542                  C2RXF0EID = 0x542
                    0x0542                  _C2RXF0EID = 0x542
                    0x0542                  _C2RXF0EIDbits = 0x542
                    0x0542                  C2TXD = 0x542
                    0x0542                  _C2TXD = 0x542
                    0x0544                  C2RXF1SID = 0x544
                    0x0544                  _C2RXF1SID = 0x544
                    0x0544                  _C2RXF1SIDbits = 0x544
                    0x0546                  C2RXF1EID = 0x546
                    0x0546                  _C2RXF1EID = 0x546
                    0x0546                  _C2RXF1EIDbits = 0x546
                    0x0548                  C2RXF2SID = 0x548
                    0x0548                  _C2RXF2SID = 0x548
                    0x0548                  _C2RXF2SIDbits = 0x548
                    0x054a                  C2RXF2EID = 0x54a
                    0x054a                  _C2RXF2EID = 0x54a
                    0x054a                  _C2RXF2EIDbits = 0x54a
                    0x054c                  C2RXF3SID = 0x54c
                    0x054c                  _C2RXF3SID = 0x54c
                    0x054c                  _C2RXF3SIDbits = 0x54c
                    0x054e                  C2RXF3EID = 0x54e
                    0x054e                  _C2RXF3EID = 0x54e
                    0x054e                  _C2RXF3EIDbits = 0x54e
                    0x0550                  C2RXF4SID = 0x550
                    0x0550                  _C2RXF4SID = 0x550
                    0x0550                  _C2RXF4SIDbits = 0x550
                    0x0552                  C2RXF4EID = 0x552
                    0x0552                  _C2RXF4EID = 0x552
                    0x0552                  _C2RXF4EIDbits = 0x552
                    0x0554                  C2RXF5SID = 0x554
                    0x0554                  _C2RXF5SID = 0x554
                    0x0554                  _C2RXF5SIDbits = 0x554
                    0x0556                  C2RXF5EID = 0x556
                    0x0556                  _C2RXF5EID = 0x556
                    0x0556                  _C2RXF5EIDbits = 0x556
                    0x0558                  C2RXF6SID = 0x558
                    0x0558                  _C2RXF6SID = 0x558
                    0x0558                  _C2RXF6SIDbits = 0x558
                    0x055a                  C2RXF6EID = 0x55a
                    0x055a                  _C2RXF6EID = 0x55a
                    0x055a                  _C2RXF6EIDbits = 0x55a
                    0x055c                  C2RXF7SID = 0x55c
                    0x055c                  _C2RXF7SID = 0x55c
                    0x055c                  _C2RXF7SIDbits = 0x55c
                    0x055e                  C2RXF7EID = 0x55e
                    0x055e                  _C2RXF7EID = 0x55e
                    0x055e                  _C2RXF7EIDbits = 0x55e
                    0x0560                  C2RXF8SID = 0x560
                    0x0560                  _C2RXF8SID = 0x560
                    0x0560                  _C2RXF8SIDbits = 0x560
                    0x0562                  C2RXF8EID = 0x562
                    0x0562                  _C2RXF8EID = 0x562
                    0x0562                  _C2RXF8EIDbits = 0x562
                    0x0564                  C2RXF9SID = 0x564
                    0x0564                  _C2RXF9SID = 0x564
                    0x0564                  _C2RXF9SIDbits = 0x564
                    0x0566                  C2RXF9EID = 0x566
                    0x0566                  _C2RXF9EID = 0x566
                    0x0566                  _C2RXF9EIDbits = 0x566
                    0x0568                  C2RXF10SID = 0x568
                    0x0568                  _C2RXF10SID = 0x568
                    0x0568                  _C2RXF10SIDbits = 0x568
                    0x056a                  C2RXF10EID = 0x56a
                    0x056a                  _C2RXF10EID = 0x56a
                    0x056a                  _C2RXF10EIDbits = 0x56a
                    0x056c                  C2RXF11SID = 0x56c
                    0x056c                  _C2RXF11SID = 0x56c
                    0x056c                  _C2RXF11SIDbits = 0x56c
                    0x056e                  C2RXF11EID = 0x56e
                    0x056e                  _C2RXF11EID = 0x56e
                    0x056e                  _C2RXF11EIDbits = 0x56e
                    0x0570                  C2RXF12SID = 0x570
                    0x0570                  _C2RXF12SID = 0x570
                    0x0570                  _C2RXF12SIDbits = 0x570
                    0x0572                  C2RXF12EID = 0x572
                    0x0572                  _C2RXF12EID = 0x572
                    0x0572                  _C2RXF12EIDbits = 0x572
                    0x0574                  C2RXF13SID = 0x574
                    0x0574                  _C2RXF13SID = 0x574
                    0x0574                  _C2RXF13SIDbits = 0x574
                    0x0576                  C2RXF13EID = 0x576
                    0x0576                  _C2RXF13EID = 0x576
                    0x0576                  _C2RXF13EIDbits = 0x576
                    0x0578                  C2RXF14SID = 0x578
                    0x0578                  _C2RXF14SID = 0x578
                    0x0578                  _C2RXF14SIDbits = 0x578
                    0x057a                  C2RXF14EID = 0x57a
                    0x057a                  _C2RXF14EID = 0x57a
                    0x057a                  _C2RXF14EIDbits = 0x57a
                    0x057c                  C2RXF15SID = 0x57c
                    0x057c                  _C2RXF15SID = 0x57c
                    0x057c                  _C2RXF15SIDbits = 0x57c
                    0x057e                  C2RXF15EID = 0x57e
                    0x057e                  _C2RXF15EID = 0x57e
                    0x057e                  _C2RXF15EIDbits = 0x57e
                    0x06c0                  ODCA = 0x6c0
                    0x06c0                  _ODCA = 0x6c0
                    0x06c0                  _ODCAbits = 0x6c0
                    0x06d2                  ODCD = 0x6d2
                    0x06d2                  _ODCD = 0x6d2
                    0x06d2                  _ODCDbits = 0x6d2
                    0x06de                  ODCF = 0x6de
                    0x06de                  _ODCF = 0x6de
                    0x06de                  _ODCFbits = 0x6de
                    0x06e4                  ODCG = 0x6e4
                    0x06e4                  _ODCG = 0x6e4
                    0x06e4                  _ODCGbits = 0x6e4
                    0x0740                  RCON = 0x740
                    0x0740                  _RCON = 0x740
                    0x0740                  _RCONbits = 0x740
                    0x0742                  OSCCON = 0x742
                    0x0742                  _OSCCON = 0x742
                    0x0742                  _OSCCONbits = 0x742
                    0x0742                  OSCCONL = 0x742
                    0x0742                  _OSCCONL = 0x742
                    0x0743                  OSCCONH = 0x743
                    0x0743                  _OSCCONH = 0x743
                    0x0744                  CLKDIV = 0x744
                    0x0744                  _CLKDIV = 0x744
                    0x0744                  _CLKDIVbits = 0x744
                    0x0746                  PLLFBD = 0x746
                    0x0746                  _PLLFBD = 0x746
                    0x0746                  _PLLFBDbits = 0x746
                    0x0748                  OSCTUN = 0x748
                    0x0748                  _OSCTUN = 0x748
                    0x0748                  _OSCTUNbits = 0x748
                    0x0750                  BSRAM = 0x750
                    0x0750                  _BSRAM = 0x750
                    0x0750                  _BSRAMbits = 0x750
                    0x0752                  SSRAM = 0x752
                    0x0752                  _SSRAM = 0x752
                    0x0752                  _SSRAMbits = 0x752
                    0x0760                  NVMCON = 0x760
                    0x0760                  _NVMCON = 0x760
                    0x0760                  _NVMCONbits = 0x760
                    0x0766                  NVMKEY = 0x766
                    0x0766                  _NVMKEY = 0x766
                    0x0770                  PMD1 = 0x770
                    0x0770                  _PMD1 = 0x770
                    0x0770                  _PMD1bits = 0x770
                    0x0772                  PMD2 = 0x772
                    0x0772                  _PMD2 = 0x772
                    0x0772                  _PMD2bits = 0x772
                    0x0774                  PMD3 = 0x774
                    0x0774                  _PMD3 = 0x774
                    0x0774                  _PMD3bits = 0x774
                    0x0022                  ACCA = 0x22
                    0x0022                  _ACCA = 0x22
                    0x0028                  ACCB = 0x28
                    0x0028                  _ACCB = 0x28
                    0x0440                  CAN1 = 0x440
                    0x0440                  _CAN1 = 0x440
                    0x0540                  CAN2 = 0x540
                    0x0540                  _CAN2 = 0x540
                    0x0140                  IC1 = 0x140
                    0x0140                  _IC1 = 0x140
                    0x0144                  IC2 = 0x144
                    0x0144                  _IC2 = 0x144
                    0x0148                  IC3 = 0x148
                    0x0148                  _IC3 = 0x148
                    0x014c                  IC4 = 0x14c
                    0x014c                  _IC4 = 0x14c
                    0x0150                  IC5 = 0x150
                    0x0150                  _IC5 = 0x150
                    0x0154                  IC6 = 0x154
                    0x0154                  _IC6 = 0x154
                    0x0158                  IC7 = 0x158
                    0x0158                  _IC7 = 0x158
                    0x015c                  IC8 = 0x15c
                    0x015c                  _IC8 = 0x15c
                    0x0180                  OC1 = 0x180
                    0x0180                  _OC1 = 0x180
                    0x0186                  OC2 = 0x186
                    0x0186                  _OC2 = 0x186
                    0x018c                  OC3 = 0x18c
                    0x018c                  _OC3 = 0x18c
                    0x0192                  OC4 = 0x192
                    0x0192                  _OC4 = 0x192
                    0x0198                  OC5 = 0x198
                    0x0198                  _OC5 = 0x198
                    0x019e                  OC6 = 0x19e
                    0x019e                  _OC6 = 0x19e
                    0x01a4                  OC7 = 0x1a4
                    0x01a4                  _OC7 = 0x1a4
                    0x01aa                  OC8 = 0x1aa
                    0x01aa                  _OC8 = 0x1aa
                    0x0240                  SPI1 = 0x240
                    0x0240                  _SPI1 = 0x240
                    0x0260                  SPI2 = 0x260
                    0x0260                  _SPI2 = 0x260
                    0x0220                  UART1 = 0x220
                    0x0220                  _UART1 = 0x220
                    0x0230                  UART2 = 0x230
                    0x0230                  _UART2 = 0x230
START GROUP
LOAD c:/program files (x86)/microchip/xc16/v1.26/bin/bin/../../lib\liblega-pic30-elf.a
LOAD c:/program files (x86)/microchip/xc16/v1.26/bin/bin/../../lib\libm-elf.a
LOAD c:/program files (x86)/microchip/xc16/v1.26/bin/bin/../../lib\liblega-c-elf.a
END GROUP
OUTPUT(dist/default/production/8004v1_10.production.elf elf32-pic30)
LOAD FBS
LOAD FSS
LOAD FGS
LOAD jump_table
LOAD default_isr
LOAD data_init
LOAD shared_data_init

.debug_pubtypes
                  0x000060        0xac7
 .debug_pubtypes
                  0x000060         0x2f build/default/production/_ext/1472/LC8004delay_b.o
 .debug_pubtypes
                  0x00008f         0xd6 build/default/production/_ext/1472/LC8004extFRAM_i.o
 .debug_pubtypes
                  0x000165         0x35 build/default/production/_ext/1472/AD5241b.o
 .debug_pubtypes
                  0x00019a        0x98d build/default/production/_ext/1472/lc8004main_1_10.o

__c30_signature
                  0x000b27        0x24c
 __c30_signature
                  0x000b27          0x6 build/default/production/_ext/1472/LC8004delay_b.o
 __c30_signature
                  0x000b2d          0x6 build/default/production/_ext/1472/LC8004extFRAM_i.o
 __c30_signature
                  0x000b33          0x6 build/default/production/_ext/1472/AD5241b.o
 __c30_signature
                  0x000b39          0x6 build/default/production/_ext/1472/lc8004main_1_10.o
 __c30_signature
                  0x000b3f          0x6 c:/program files (x86)/microchip/xc16/v1.26/bin/bin/../../lib/dsPIC33F\libp33FJ256GP710A-elf.a(CloseI2C1.o)
 __c30_signature
                  0x000b45          0x6 c:/program files (x86)/microchip/xc16/v1.26/bin/bin/../../lib/dsPIC33F\libp33FJ256GP710A-elf.a(CloseI2C2.o)
 __c30_signature
                  0x000b4b          0x6 c:/program files (x86)/microchip/xc16/v1.26/bin/bin/../../lib/dsPIC33F\libp33FJ256GP710A-elf.a(IdleI2C1.o)
 __c30_signature
                  0x000b51          0x6 c:/program files (x86)/microchip/xc16/v1.26/bin/bin/../../lib/dsPIC33F\libp33FJ256GP710A-elf.a(IdleI2C2.o)
 __c30_signature
                  0x000b57          0x6 c:/program files (x86)/microchip/xc16/v1.26/bin/bin/../../lib/dsPIC33F\libp33FJ256GP710A-elf.a(MasterReadI2C1.o)
 __c30_signature
                  0x000b5d          0x6 c:/program files (x86)/microchip/xc16/v1.26/bin/bin/../../lib/dsPIC33F\libp33FJ256GP710A-elf.a(MasterReadI2C2.o)
 __c30_signature
                  0x000b63          0x6 c:/program files (x86)/microchip/xc16/v1.26/bin/bin/../../lib/dsPIC33F\libp33FJ256GP710A-elf.a(MasterWriteI2C1.o)
 __c30_signature
                  0x000b69          0x6 c:/program files (x86)/microchip/xc16/v1.26/bin/bin/../../lib/dsPIC33F\libp33FJ256GP710A-elf.a(MasterWriteI2C2.o)
 __c30_signature
                  0x000b6f          0x6 c:/program files (x86)/microchip/xc16/v1.26/bin/bin/../../lib/dsPIC33F\libp33FJ256GP710A-elf.a(NotAckI2C1.o)
 __c30_signature
                  0x000b75          0x6 c:/program files (x86)/microchip/xc16/v1.26/bin/bin/../../lib/dsPIC33F\libp33FJ256GP710A-elf.a(OpenI2C1.o)
 __c30_signature
                  0x000b7b          0x6 c:/program files (x86)/microchip/xc16/v1.26/bin/bin/../../lib/dsPIC33F\libp33FJ256GP710A-elf.a(OpenI2C2.o)
 __c30_signature
                  0x000b81          0x6 c:/program files (x86)/microchip/xc16/v1.26/bin/bin/../../lib/dsPIC33F\libp33FJ256GP710A-elf.a(RestartI2C1.o)
 __c30_signature
                  0x000b87          0x6 c:/program files (x86)/microchip/xc16/v1.26/bin/bin/../../lib/dsPIC33F\libp33FJ256GP710A-elf.a(StartI2C1.o)
 __c30_signature
                  0x000b8d          0x6 c:/program files (x86)/microchip/xc16/v1.26/bin/bin/../../lib/dsPIC33F\libp33FJ256GP710A-elf.a(StartI2C2.o)
 __c30_signature
                  0x000b93          0x6 c:/program files (x86)/microchip/xc16/v1.26/bin/bin/../../lib/dsPIC33F\libp33FJ256GP710A-elf.a(StopI2C1.o)
 __c30_signature
                  0x000b99          0x6 c:/program files (x86)/microchip/xc16/v1.26/bin/bin/../../lib/dsPIC33F\libp33FJ256GP710A-elf.a(StopI2C2.o)
 __c30_signature
                  0x000b9f          0x6 c:/program files (x86)/microchip/xc16/v1.26/bin/bin/../../lib/dsPIC33F\libp33FJ256GP710A-elf.a(CloseOC1.o)
 __c30_signature
                  0x000ba5          0x6 c:/program files (x86)/microchip/xc16/v1.26/bin/bin/../../lib/dsPIC33F\libp33FJ256GP710A-elf.a(isWDTTO.o)
 __c30_signature
                  0x000bab          0x6 c:/program files (x86)/microchip/xc16/v1.26/bin/bin/../../lib/dsPIC33F\libp33FJ256GP710A-elf.a(CloseTimer23.o)
 __c30_signature
                  0x000bb1          0x6 c:/program files (x86)/microchip/xc16/v1.26/bin/bin/../../lib/dsPIC33F\libp33FJ256GP710A-elf.a(CloseTimer3.o)
 __c30_signature
                  0x000bb7          0x6 c:/program files (x86)/microchip/xc16/v1.26/bin/bin/../../lib/dsPIC33F\libp33FJ256GP710A-elf.a(ConfigIntTimer89.o)
 __c30_signature
                  0x000bbd          0x6 c:/program files (x86)/microchip/xc16/v1.26/bin/bin/../../lib/dsPIC33F\libp33FJ256GP710A-elf.a(OpenTimer3.o)
 __c30_signature
                  0x000bc3          0x6 c:/program files (x86)/microchip/xc16/v1.26/bin/bin/../../lib/dsPIC33F\libp33FJ256GP710A-elf.a(OpenTimer89.o)
 __c30_signature
                  0x000bc9          0x6 c:/program files (x86)/microchip/xc16/v1.26/bin/bin/../../lib/dsPIC33F\libp33FJ256GP710A-elf.a(WriteTimer3.o)
 __c30_signature
                  0x000bcf          0x6 c:/program files (x86)/microchip/xc16/v1.26/bin/bin/../../lib/dsPIC33F\libp33FJ256GP710A-elf.a(WriteTimer89.o)
 __c30_signature
                  0x000bd5          0x6 c:/program files (x86)/microchip/xc16/v1.26/bin/bin/../../lib/dsPIC33F\libp33FJ256GP710A-elf.a(BusyUART1.o)
 __c30_signature
                  0x000bdb          0x6 c:/program files (x86)/microchip/xc16/v1.26/bin/bin/../../lib/dsPIC33F\libp33FJ256GP710A-elf.a(ConfigIntUART1.o)
 __c30_signature
                  0x000be1          0x6 c:/program files (x86)/microchip/xc16/v1.26/bin/bin/../../lib/dsPIC33F\libp33FJ256GP710A-elf.a(DataRdyUART1.o)
 __c30_signature
                  0x000be7          0x6 c:/program files (x86)/microchip/xc16/v1.26/bin/bin/../../lib/dsPIC33F\libp33FJ256GP710A-elf.a(OpenUART1.o)
 __c30_signature
                  0x000bed          0x6 c:/program files (x86)/microchip/xc16/v1.26/bin/bin/../../lib/dsPIC33F\libp33FJ256GP710A-elf.a(putsUART1.o)
 __c30_signature
                  0x000bf3          0x6 c:/program files (x86)/microchip/xc16/v1.26/bin/bin/../../lib/dsPIC33F\libp33FJ256GP710A-elf.a(ReadUART1.o)
 __c30_signature
                  0x000bf9          0x6 c:/program files (x86)/microchip/xc16/v1.26/bin/bin/../../lib/dsPIC33F\libp33FJ256GP710A-elf.a(WriteUART1.o)
 __c30_signature
                  0x000bff          0x6 c:/program files (x86)/microchip/xc16/v1.26/bin/bin/../../lib/dsPIC33F\libp33FJ256GP710A-elf.a(ConfigINT1.o)
 __c30_signature
                  0x000c05          0x6 c:/program files (x86)/microchip/xc16/v1.26/bin/bin/../../lib\liblega-pic30-elf.a(crt0_standard.o)
 __c30_signature
                  0x000c0b          0x6 c:/program files (x86)/microchip/xc16/v1.26/bin/bin/../../lib\liblega-pic30-elf.a(data_init_standard.o)
 __c30_signature
                  0x000c11          0x6 c:/program files (x86)/microchip/xc16/v1.26/bin/bin/../../lib\liblega-pic30-elf.a(delay32.Leo)
 __c30_signature
                  0x000c17          0x6 c:/program files (x86)/microchip/xc16/v1.26/bin/bin/../../lib\libm-elf.a(addsf3.eo)
 __c30_signature
                  0x000c1d          0x6 c:/program files (x86)/microchip/xc16/v1.26/bin/bin/../../lib\libm-elf.a(divsf3.eo)
 __c30_signature
                  0x000c23          0x6 c:/program files (x86)/microchip/xc16/v1.26/bin/bin/../../lib\libm-elf.a(feqltle.eo)
 __c30_signature
                  0x000c29          0x6 c:/program files (x86)/microchip/xc16/v1.26/bin/bin/../../lib\libm-elf.a(fgtge.eo)
 __c30_signature
                  0x000c2f          0x6 c:/program files (x86)/microchip/xc16/v1.26/bin/bin/../../lib\libm-elf.a(fixsfsi.eo)
 __c30_signature
                  0x000c35          0x6 c:/program files (x86)/microchip/xc16/v1.26/bin/bin/../../lib\libm-elf.a(fixunssfsi.eo)
 __c30_signature
                  0x000c3b          0x6 c:/program files (x86)/microchip/xc16/v1.26/bin/bin/../../lib\libm-elf.a(floatsisf.eo)
 __c30_signature
                  0x000c41          0x6 c:/program files (x86)/microchip/xc16/v1.26/bin/bin/../../lib\libm-elf.a(floatunsisf.eo)
 __c30_signature
                  0x000c47          0x6 c:/program files (x86)/microchip/xc16/v1.26/bin/bin/../../lib\libm-elf.a(fne.eo)
 __c30_signature
                  0x000c4d          0x6 c:/program files (x86)/microchip/xc16/v1.26/bin/bin/../../lib\libm-elf.a(fpack.eo)
 __c30_signature
                  0x000c53          0x6 c:/program files (x86)/microchip/xc16/v1.26/bin/bin/../../lib\libm-elf.a(funpack.eo)
 __c30_signature
                  0x000c59          0x6 c:/program files (x86)/microchip/xc16/v1.26/bin/bin/../../lib\libm-elf.a(funpack2.eo)
 __c30_signature
                  0x000c5f          0x6 c:/program files (x86)/microchip/xc16/v1.26/bin/bin/../../lib\libm-elf.a(futil.eo)
 __c30_signature
                  0x000c65          0x6 c:/program files (x86)/microchip/xc16/v1.26/bin/bin/../../lib\libm-elf.a(logf.eo)
 __c30_signature
                  0x000c6b          0x6 c:/program files (x86)/microchip/xc16/v1.26/bin/bin/../../lib\libm-elf.a(mulsf3.eo)
 __c30_signature
                  0x000c71          0x6 c:/program files (x86)/microchip/xc16/v1.26/bin/bin/../../lib\libm-elf.a(umodsi3.eo)
 __c30_signature
                  0x000c77          0x6 c:/program files (x86)/microchip/xc16/v1.26/bin/bin/../../lib\libm-elf.a(_frexpf.eo)
 __c30_signature
                  0x000c7d          0x6 c:/program files (x86)/microchip/xc16/v1.26/bin/bin/../../lib\libm-elf.a(errno.eo)
 __c30_signature
                  0x000c83          0x6 c:/program files (x86)/microchip/xc16/v1.26/bin/bin/../../lib\libm-elf.a(fcompare.eo)
 __c30_signature
                  0x000c89          0x6 c:/program files (x86)/microchip/xc16/v1.26/bin/bin/../../lib\libm-elf.a(floatdisf.eo)
 __c30_signature
                  0x000c8f          0x6 c:/program files (x86)/microchip/xc16/v1.26/bin/bin/../../lib\libm-elf.a(floatundisf.eo)
 __c30_signature
                  0x000c95          0x6 c:/program files (x86)/microchip/xc16/v1.26/bin/bin/../../lib\libm-elf.a(udivsi3.eo)
 __c30_signature
                  0x000c9b          0x6 c:/program files (x86)/microchip/xc16/v1.26/bin/bin/../../lib\liblega-c-elf.a(isalpha.XXeso)
 __c30_signature
                  0x000ca1          0x6 c:/program files (x86)/microchip/xc16/v1.26/bin/bin/../../lib\liblega-c-elf.a(isgraph.XXeso)
 __c30_signature
                  0x000ca7          0x6 c:/program files (x86)/microchip/xc16/v1.26/bin/bin/../../lib\liblega-c-elf.a(sprintf_cdfFnopuxX.XXeo)
 __c30_signature
                  0x000cad          0x6 c:/program files (x86)/microchip/xc16/v1.26/bin/bin/../../lib\liblega-c-elf.a(xprintf_cdfFnopuxX.XXeo)
 __c30_signature
                  0x000cb3          0x6 c:/program files (x86)/microchip/xc16/v1.26/bin/bin/../../lib\liblega-c-elf.a(xputfld_cdfFnopuxX.XXeo)
 __c30_signature
                  0x000cb9          0x6 c:/program files (x86)/microchip/xc16/v1.26/bin/bin/../../lib\liblega-c-elf.a(xldtob_cdfFnopuxX.XXeo)
 __c30_signature
                  0x000cbf          0x6 c:/program files (x86)/microchip/xc16/v1.26/bin/bin/../../lib\liblega-c-elf.a(xgenld_cdfFnopuxX.XXeo)
 __c30_signature
                  0x000cc5          0x6 c:/program files (x86)/microchip/xc16/v1.26/bin/bin/../../lib\liblega-c-elf.a(div.XXeo)
 __c30_signature
                  0x000ccb          0x6 c:/program files (x86)/microchip/xc16/v1.26/bin/bin/../../lib\liblega-c-elf.a(ldiv.XXeo)
 __c30_signature
                  0x000cd1          0x6 c:/program files (x86)/microchip/xc16/v1.26/bin/bin/../../lib\liblega-c-elf.a(memcpy.XXeo)
 __c30_signature
                  0x000cd7          0x6 c:/program files (x86)/microchip/xc16/v1.26/bin/bin/../../lib\liblega-c-elf.a(strchr.XXeo)
 __c30_signature
                  0x000cdd          0x6 c:/program files (x86)/microchip/xc16/v1.26/bin/bin/../../lib\liblega-c-elf.a(xldunsca.XXeo)
 __c30_signature
                  0x000ce3          0x6 c:/program files (x86)/microchip/xc16/v1.26/bin/bin/../../lib\liblega-c-elf.a(xlitob.XXeo)
 __c30_signature
                  0x000ce9          0x6 c:/program files (x86)/microchip/xc16/v1.26/bin/bin/../../lib\liblega-c-elf.a(xputtxt.XXeo)
 __c30_signature
                  0x000cef          0x6 c:/program files (x86)/microchip/xc16/v1.26/bin/bin/../../lib\liblega-c-elf.a(xvacopy.XXeo)
 __c30_signature
                  0x000cf5          0x6 c:/program files (x86)/microchip/xc16/v1.26/bin/bin/../../lib\liblega-c-elf.a(xdnorm.XXelo)
 __c30_signature
                  0x000cfb          0x6 c:/program files (x86)/microchip/xc16/v1.26/bin/bin/../../lib\libm-elf.a(deqltle.eo)
 __c30_signature
                  0x000d01          0x6 c:/program files (x86)/microchip/xc16/v1.26/bin/bin/../../lib\libm-elf.a(dgtge.eo)
 __c30_signature
                  0x000d07          0x6 c:/program files (x86)/microchip/xc16/v1.26/bin/bin/../../lib\libm-elf.a(divdf3.eo)
 __c30_signature
                  0x000d0d          0x6 c:/program files (x86)/microchip/xc16/v1.26/bin/bin/../../lib\libm-elf.a(divsi3.eo)
 __c30_signature
                  0x000d13          0x6 c:/program files (x86)/microchip/xc16/v1.26/bin/bin/../../lib\libm-elf.a(dpack.eo)
 __c30_signature
                  0x000d19          0x6 c:/program files (x86)/microchip/xc16/v1.26/bin/bin/../../lib\libm-elf.a(dunpack2.eo)
 __c30_signature
                  0x000d1f          0x6 c:/program files (x86)/microchip/xc16/v1.26/bin/bin/../../lib\libm-elf.a(extendsfdf.eo)
 __c30_signature
                  0x000d25          0x6 c:/program files (x86)/microchip/xc16/v1.26/bin/bin/../../lib\libm-elf.a(fixdfsi.eo)
 __c30_signature
                  0x000d2b          0x6 c:/program files (x86)/microchip/xc16/v1.26/bin/bin/../../lib\libm-elf.a(floatsidf.eo)
 __c30_signature
                  0x000d31          0x6 c:/program files (x86)/microchip/xc16/v1.26/bin/bin/../../lib\libm-elf.a(muldf3.eo)
 __c30_signature
                  0x000d37          0x6 c:/program files (x86)/microchip/xc16/v1.26/bin/bin/../../lib\libm-elf.a(subdf3.eo)
 __c30_signature
                  0x000d3d          0x6 c:/program files (x86)/microchip/xc16/v1.26/bin/bin/../../lib\libm-elf.a(mulsi3.eo)
 __c30_signature
                  0x000d43          0x6 c:/program files (x86)/microchip/xc16/v1.26/bin/bin/../../lib\libm-elf.a(divmoddi3.eo)
 __c30_signature
                  0x000d49          0x6 c:/program files (x86)/microchip/xc16/v1.26/bin/bin/../../lib\libm-elf.a(adddf3.eo)
 __c30_signature
                  0x000d4f          0x6 c:/program files (x86)/microchip/xc16/v1.26/bin/bin/../../lib\libm-elf.a(dcompare.eo)
 __c30_signature
                  0x000d55          0x6 c:/program files (x86)/microchip/xc16/v1.26/bin/bin/../../lib\libm-elf.a(dpropagateNaN.eo)
 __c30_signature
                  0x000d5b          0x6 c:/program files (x86)/microchip/xc16/v1.26/bin/bin/../../lib\libm-elf.a(dtype.eo)
 __c30_signature
                  0x000d61          0x6 c:/program files (x86)/microchip/xc16/v1.26/bin/bin/../../lib\libm-elf.a(dunpack.eo)
 __c30_signature
                  0x000d67          0x6 c:/program files (x86)/microchip/xc16/v1.26/bin/bin/../../lib\libm-elf.a(floatdidf.eo)
 __c30_signature
                  0x000d6d          0x6 c:/program files (x86)/microchip/xc16/v1.26/bin/bin/../../lib\libm-elf.a(floatundidf.eo)

.nbss               0x0800          0x2
 .nbss              0x0800          0x2 c:/program files (x86)/microchip/xc16/v1.26/bin/bin/../../lib\libm-elf.a(errno.eo)
                    0x0800                  _errno

.data               0x0802       0x1e92
 .data              0x0802       0x1e92 build/default/production/_ext/1472/lc8004main_1_10.o
                    0x0802                  _gain
                    0x0804                  _maxSingleVW
                    0x0806                  _maxFourVW
                    0x0808                  _maxEightVW
                    0x080a                  _maxSixteenVW
                    0x080c                  _maxThirtytwoVW
                    0x080e                  _maxEightTH
                    0x0810                  _maxThirtytwoTH
                    0x0812                  _minScanSingleVW
                    0x0813                  _minScanFourVW
                    0x0814                  _minScanEightVW
                    0x0815                  _minScanSixteenVW
                    0x0816                  _minScanThirtytwoVW
                    0x0817                  _minScanEightTH
                    0x0818                  _minScanThirtytwoTH
                    0x081a                  _VAGC_MIN
                    0x081c                  _LogIntLength
                    0x0820                  _V0_5
                    0x0822                  _TimeOut
                    0x0824                  _tcy
                    0x0828                  _mS512
                    0x082c                  _mS256
                    0x0830                  _mS128
                    0x0834                  _mS64
                    0x0838                  _mS32
                    0x083c                  _mS16
                    0x0840                  _mS8
                    0x0844                  _mul3V
                    0x0848                  _mul12V
                    0x084c                  _mullith3V
                    0x0850                  _Vref
                    0x0854                  _bat_12LOW
                    0x0858                  _bat_3LOW
                    0x085c                  _bat_3MIN
                    0x0860                  _bat_12MIN
                    0x0864                  _passwordbyte3
                    0x0865                  _passwordbyte2
                    0x0866                  _passwordbyte1
                    0x0867                  _passwordbyte0
                    0x0868                  _gageFactor
                    0x086c                  _polyCoA
                    0x0870                  _polyCoB
                    0x0874                  _polyCoC
                    0x0878                  _C0
                    0x087c                  _C1
                    0x0880                  _C2
                    0x0884                  _C3
                    0x0888                  _C4
                    0x088c                  _C5
                    0x0890                  _AllChannelsLoaded
                    0x08b6                  _Blankarray
                    0x08c3                  _BT
                    0x08ec                  _BT0
                    0x0916                  _BT1
                    0x093f                  _BTD
                    0x096f                  _BTE
                    0x099e                  _BTOFF
                    0x09ad                  _BTON
                    0x09bb                  _BTDisablenotAllowed
                    0x09ec                  _BTR
                    0x0a13                  _BTTIMEREN
                    0x0a2b                  _BTTIMERDIS
                    0x0a44                  _c
                    0x0a66                  _Calclock
                    0x0a83                  _CH1
                    0x0a8a                  _CH2
                    0x0a91                  _CH3
                    0x0a98                  _CH4
                    0x0a9f                  _CH5
                    0x0aa6                  _CH6
                    0x0aad                  _CH7
                    0x0ab4                  _CH8
                    0x0abb                  _CH9
                    0x0ac2                  _CH10
                    0x0aca                  _CH11
                    0x0ad2                  _CH12
                    0x0ada                  _CH13
                    0x0ae2                  _CH14
                    0x0aea                  _CH15
                    0x0af2                  _CH16
                    0x0afa                  _CH17
                    0x0b02                  _CH18
                    0x0b0a                  _CH19
                    0x0b12                  _CH20
                    0x0b1a                  _CH21
                    0x0b22                  _CH22
                    0x0b2a                  _CH23
                    0x0b32                  _CH24
                    0x0b3a                  _CH25
                    0x0b42                  _CH26
                    0x0b4a                  _CH27
                    0x0b52                  _CH28
                    0x0b5a                  _CH29
                    0x0b62                  _CH30
                    0x0b6a                  _CH31
                    0x0b72                  _CH32
                    0x0b7a                  _Clockset
                    0x0b9b                  _CnotAllowed
                    0x0bca                  _CommandDescription
                    0x0bed                  _ConfigureChannel
                    0x0c01                  _CPOFF
                    0x0c13                  _CPON
                    0x0c24                  _CPTIMERACT
                    0x0c37                  _CPTIMERDEACT
                    0x0c4c                  _CPTIMEREN
                    0x0c68                  _CPTIMERDIS
                    0x0c85                  _Dashes
                    0x0cb6                  _DataloggerID
                    0x0cc5                  _Date
                    0x0ccc                  _Datejulian
                    0x0ce3                  _Datemonthday
                    0x0cfd                  _Default
                    0x0d32                  _DefaultsNotLoaded
                    0x0d5d                  _DF
                    0x0d96                  _Disabled
                    0x0d9f                  _DisabledDisplay
                    0x0da3                  _Displaynext
                    0x0dd4                  _Displaynnnn
                    0x0e0d                  _DL
                    0x0e28                  _DnotAllowed
                    0x0e4a                  _Enabled
                    0x0e52                  _End
                    0x0e8c                  _Error
                    0x0e92                  _Errors
                    0x0ea6                  _Escape
                    0x0ebd                  _ExtInOff
                    0x0f05                  _Exttemp
                    0x0f1b                  _forLinear
                    0x0f3f                  _forPoly
                    0x0f67                  _GageinfoWhere
                    0x0f80                  _GageinformationA
                    0x0fa1                  _GageinformationZ
                    0x0fc2                  _GF
                    0x0fca                  _GO
                    0x0fd2                  _GT
                    0x0fd7                  _Hello
                    0x0ff0                  _Hightemp1
                    0x100e                  _Hightemp2
                    0x102e                  _Hightemp3
                    0x104b                  _ID
                    0x108a                  _Interval
                    0x1095                  _Inttemp
                    0x10ab                  _Iterations
                    0x10b8                  _iterations
                    0x10ec                  _LCfour
                    0x10f1                  _LCfourbyfour
                    0x10f8                  _LCfourbysixteen
                    0x1100                  _LCfourbyeightVW
                    0x1109                  _LCfourbyeightTH
                    0x1112                  _LCfourbythirtytwoVW
                    0x111c                  _LCfourbythirtytwoTH
                    0x1126                  _Length
                    0x112f                  _length
                    0x1155                  _Lithiumcell
                    0x1163                  _LithiumVoltage
                    0x117b                  _Log
                    0x11b4                  _Logdisabled
                    0x11cc                  _Logdisenable
                    0x1201                  _Logenabled
                    0x1218                  _Loggingalreadystarted
                    0x1231                  _Loggingalreadystopped
                    0x124a                  _Loggingstarted
                    0x125b                  _Loggingstopped
                    0x126c                  _Loggingwillstart
                    0x1284                  _Loggingwillstop
                    0x129b                  _Loggingwillstopmemfull
                    0x12c1                  _Loggingwillnotstopmemfull
                    0x12eb                  _Logintalreadydisabled
                    0x130b                  _Logintalreadyenabled
                    0x132a                  _Loglist
                    0x134b                  _LogIntStopTime
                    0x138a                  _LogIntWhileLogging
                    0x13bc                  _Modbusaddress
                    0x13e1                  _ModbusaddressIS
                    0x13f2                  _Mainbattery
                    0x1400                  _MEMcleared
                    0x1410                  _MEMnotcleared
                    0x1424                  _MEMLOC
                    0x1436                  _MEMSTAT
                    0x144f                  _MinInterror
                    0x148d                  _Minscanerror
                    0x14c5                  _Modbus
                    0x14fc                  _Monitoralreadydisabled
                    0x151b                  _Monitoralreadyenabled
                    0x1539                  _Monitordisabled
                    0x1550                  _Monitorenabled
                    0x1566                  _Monitorstatus
                    0x159d                  _MS
                    0x15a1                  _MX
                    0x15c7                  _MXselect
                    0x1608                  _MUX1setupmenu
                    0x1626                  _MUX4setupmenu
                    0x164e                  _MUX8setupmenu
                    0x1676                  _MUX8Tsetupmenu
                    0x16a6                  _MUX16setupmenu
                    0x16cf                  _MUX32setupmenu
                    0x16f8                  _MUX32Tsetupmenu
                    0x1729                  _MUX1
                    0x1750                  _MUX4
                    0x1773                  _MUX8
                    0x179e                  _MUX8VW
                    0x17c1                  _MUX16
                    0x17e5                  _MUX32
                    0x1811                  _MUX32VW
                    0x1835                  _Nexttime2read
                    0x1849                  _nn
                    0x186f                  _Noarrays2display
                    0x188f                  _O
                    0x18b2                  _O0
                    0x18d6                  _O1
                    0x18f9                  _OD
                    0x1924                  _OE
                    0x194e                  _OTT
                    0x197f                  _OPT
                    0x19af                  _OP
                    0x19b3                  _or
                    0x19b6                  _PA
                    0x19be                  _PB
                    0x19c6                  _PC
                    0x19ce                  _Position
                    0x1a05                  _Poweron
                    0x1a1f                  _Poweroff
                    0x1a3a                  _Readings3_72K
                    0x1a50                  _Readings4_83K
                    0x1a66                  _Readings6_87K
                    0x1a7c                  _Readings11_86K
                    0x1a93                  _Readings14_5K
                    0x1aaa                  _Readings18_64K
                    0x1ac1                  _Readings29K
                    0x1ad8                  _Reset
                    0x1afc                  _RESET
                    0x1b23                  _Resetting
                    0x1b30                  _ResetComplete
                    0x1b3f                  _Rev
                    0x1b44                  _RnotAllowed
                    0x1b64                  _RUsure
                    0x1b77                  _RSN
                    0x1bac                  _RTC32KHZON
                    0x1bc1                  _RTC32KHZOFF
                    0x1bd7                  _saaaa
                    0x1c1b                  _sbbbb
                    0x1c5f                  _Scanint
                    0x1c9e                  _Scaninterval
                    0x1cae                  _scccc
                    0x1cf2                  _Seconds
                    0x1cfe                  _Setup
                    0x1d05                  _sffff
                    0x1d3c                  _Softwareversion
                    0x1d4f                  _soooo
                    0x1d81                  _Space
                    0x1d83                  _Startlog
                    0x1dbc                  _Stoplog
                    0x1df3                  _StopTimeNotAllowed
                    0x1e2a                  _sR
                    0x1e6f                  _SV
                    0x1e97                  _SwitchtoModbus
                    0x1eb8                  _Synch
                    0x1eea                  _Synchnot
                    0x1f20                  _SystemStatus
                    0x1f58                  _szzzz
                    0x1f90                  _t
                    0x1fc3                  _tt
                    0x1fdb                  _Tab
                    0x1fdf                  _TF
                    0x2012                  _TH
                    0x2017                  _TherminfoWhere
                    0x2036                  _THREEV
                    0x204c                  _TWELVEV
                    0x2063                  _ThisWillLoadDefaults
                    0x2090                  _Time
                    0x209a                  _Timeformat
                    0x20af                  _Timeformatcomma
                    0x20c5                  _TM1
                    0x20d5                  _TM2
                    0x20ec                  _TM4
                    0x2104                  _TM9
                    0x2116                  _TM10
                    0x2129                  _TM11
                    0x2140                  _TM5
                    0x215d                  _TM12
                    0x216e                  _TM13
                    0x218a                  _Tnn
                    0x21c0                  _TnotAllowed
                    0x21e9                  _TP
                    0x21f5                  _TFAIL
                    0x2204                  _TR
                    0x223f                  _Trapcount
                    0x224c                  __5VEXCON
                    0x225b                  VEXCO::VEXCO( (void))
                    0x226b                  __VWON1
                    0x229d                  __VWON2
                    0x22cf                  __VWON3
                    0x2300                  __VWON4
                    0x2332                  __VWON5
                    0x2364                  __VWON6
                    0x2395                  __VWOFF
                    0x23a5                  __selectGT
                    0x23d3                  __wrong
                    0x23e9                  _UP
                    0x23ed                  _Viewclock
                    0x2417                  _VL
                    0x243f                  _VTHREE
                    0x2465                  _VTWELVE
                    0x248d                  _VWTimeout
                    0x24a2                  _WF
                    0x24e7                  _XCMD
                    0x251a                  _ZR
                    0x2522                  _oscfail
                    0x253f                  _trapr
                    0x2563                  _iopuwr
                    0x25a7                  _extr
                    0x25d0                  _swr
                    0x25f7                  _wdto
                    0x2611                  _sleep
                    0x2630                  _bor
                    0x2650                  _por

.bss                0x2694        0x31e
 .bss               0x2694        0x31e build/default/production/_ext/1472/lc8004main_1_10.o
                    0x2694                  _VWflags
                    0x2696                  _VWflagsbits
                    0x2698                  _FRAM_MEMORY
                    0x269a                  _DISPLAY_CONTROL
                    0x269c                  _LC2CONTROL
                    0x269e                  _LC2CONTROL2
                    0x26a0                  _MUX4_ENABLE
                    0x26a2                  _MUX_ENABLE1_16
                    0x26a4                  _MUX_ENABLE17_32
                    0x26a6                  _THMUX_ENABLE1_16
                    0x26a8                  _THMUX_ENABLE17_32
                    0x26aa                  _MUX_CONVERSION1_16
                    0x26ae                  _MUX_CONVERSION17_32
                    0x26b2                  _PORT_CONTROL
                    0x26b4                  _DEC_TEMP
                    0x26b6                  _DEC_VWF
                    0x26b8                  _SN_BITS
                    0x26ba                  _S_1
                    0x26bc                  _S_2
                    0x26be                  _MODBUS_RXbuf
                    0x273c                  _MODBUS_TXbuf
                    0x27ba                  _TxBinaryBUF
                    0x2852                  __SNbuf
                    0x285c                  _buffer
                    0x2890                  _NABUF
                    0x2897                  _DS3231Integer
                    0x2898                  _DS3231Fraction
                    0x2899                  _intSource
                    0x289a                  _temp
                    0x289b                  _ModbusTestIdx
                    0x289c                  _MSB
                    0x289d                  _MMSB
                    0x289e                  _MMMSB
                    0x289f                  _LSB
                    0x28a0                  _tempBUF
                    0x28aa                  _testBUF
                    0x28be                  _trapBUF
                    0x28c4                  _Thermtype
                    0x28c5                  _BCDones
                    0x28c6                  _BCDtens
                    0x28c7                  _BCDhundreds
                    0x28c8                  _BCDthousands
                    0x28c9                  _BCDtenthousands
                    0x28ca                  _Hbyte
                    0x28cb                  _Lbyte
                    0x28cc                  _RTCdata
                    0x28cd                  _RTCmonths
                    0x28ce                  _RTCdays
                    0x28cf                  _RTCyears
                    0x28d0                  _RTChours
                    0x28d1                  _RTCminutes
                    0x28d2                  _RTCseconds
                    0x28d3                  _LoggingStartDays
                    0x28d4                  _who
                    0x28d6                  _F
                    0x28d8                  _cap_high
                    0x28da                  _VW_period_buffer
                    0x28dc                  _data
                    0x28de                  _julian
                    0x28e0                  _StopTime
                    0x28e2                  _year
                    0x28e4                  _month
                    0x28e6                  _day
                    0x28e8                  _DayOfWeek
                    0x28ea                  _hour
                    0x28ec                  _LoggingStartDay
                    0x28ee                  _minute
                    0x28f0                  _second
                    0x28f2                  _Analogreading
                    0x28f4                  _extThermreading
                    0x28f6                  _intThermreading
                    0x28f8                  _lithBatreading
                    0x28fa                  _mainBatreading
                    0x28fc                  _tempTMR4
                    0x28fe                  _tempTMR5
                    0x2900                  _trap
                    0x2902                  _RxData
                    0x2904                  _MODBUSaddressvalue
                    0x2906                  _percent
                    0x290a                  _processedReading
                    0x290e                  _LogIntLength1
                    0x2912                  _LogIntLength2
                    0x2916                  _LogIntLength3
                    0x291a                  _LogIntLength4
                    0x291e                  _LogIntLength5
                    0x2922                  _LogIntLength6
                    0x2926                  _LogIt1
                    0x2928                  _LogIt2
                    0x292a                  _LogIt3
                    0x292c                  _LogIt4
                    0x292e                  _LogIt5
                    0x2930                  _LogIt6
                    0x2932                  _validRTC
                    0x2934                  _VWcountLSW
                    0x2938                  _VWcountMSW
                    0x293c                  _baudrate
                    0x293e                  _LogItRemain1
                    0x2940                  _LogItRemain2
                    0x2942                  _LogItRemain3
                    0x2944                  _LogItRemain4
                    0x2946                  _LogItRemain5
                    0x2948                  _LogItRemain6
                    0x294a                  _tempUserPosition
                    0x294c                  _CaptureFlag
                    0x294e                  _gageType
                    0x2950                  _NAdata
                    0x2952                  _stopTimeTest
                    0x2954                  _testScanInterval
                    0x2956                  _ScanInterval
                    0x295a                  _timer23_value
                    0x295e                  _TotalStartSeconds
                    0x2962                  _TotalStopSeconds
                    0x2966                  _seconds_since_midnight
                    0x296a                  _TESTSECONDS
                    0x296e                  _LoggingStopHours
                    0x2972                  _LoggingStopMinutes
                    0x2976                  _LoggingStopSeconds
                    0x297a                  _PortOffHours
                    0x297b                  _PortOffMinutes
                    0x297c                  _PortOnHours
                    0x297d                  _PortOnMinutes
                    0x297e                  _memoryStatus
                    0x2982                  _outputPosition
                    0x2986                  _userPosition
                    0x298a                  _zeroReading
                    0x298e                  _gageOffset
                    0x2992                  _Lithiumreading
                    0x2996                  _VWreading
                    0x299a                  _VWreadingProcessed
                    0x299e                  _gageReading
                    0x29a2                  _batteryReading
                    0x29a6                  _BCDone
                    0x29a7                  _BCDten
                    0x29a8                  _BCDtwenty
                    0x29a9                  _BCDthirty
                    0x29aa                  _BCDforty
                    0x29ab                  _BCDfifty
                    0x29ac                  _BCDsixty
                    0x29ad                  _BCDseventy
                    0x29ae                  _BCDeighty
                    0x29af                  _BCDninety
                    0x29b0                  _decimalRTC

.data               0x29b2         0xa6
 .data              0x29b2         0x58 c:/program files (x86)/microchip/xc16/v1.26/bin/bin/../../lib\liblega-c-elf.a(xldtob_cdfFnopuxX.XXeo)
 .data              0x2a0a         0x22 c:/program files (x86)/microchip/xc16/v1.26/bin/bin/../../lib\liblega-c-elf.a(xlitob.XXeo)
 .data              0x2a2c         0x1a c:/program files (x86)/microchip/xc16/v1.26/bin/bin/../../lib\liblega-c-elf.a(xprintf_cdfFnopuxX.XXeo)
 .data              0x2a46         0x12 build/default/production/_ext/1472/LC8004extFRAM_i.o
                    0x2a46                  _config2read
                    0x2a48                  _config2write

.bss                0x2a58          0x6
 .bss               0x2a58          0x6 build/default/production/_ext/1472/LC8004extFRAM_i.o
                    0x2a58                  _add
                    0x2a5c                  _NackTest
                    0x2a5d                  _TEST

.data               0x2a5e          0x2
 .data              0x2a5e          0x2 c:/program files (x86)/microchip/xc16/v1.26/bin/bin/../../lib\liblega-c-elf.a(xgenld_cdfFnopuxX.XXeo)

_03E88900_at_address_00F80006
                  0xf80006          0x2
 _03E88900_at_address_00F80006
                  0xf80006          0x2 build/default/production/_ext/1472/lc8004main_1_10.o
                  0xf80006                  _FOSCSEL

_03E88960_at_address_00F80008
                  0xf80008          0x2
 _03E88960_at_address_00F80008
                  0xf80008          0x2 build/default/production/_ext/1472/lc8004main_1_10.o
                  0xf80008                  _FOSC

_03E889C0_at_address_00F8000A
                  0xf8000a          0x2
 _03E889C0_at_address_00F8000A
                  0xf8000a          0x2 build/default/production/_ext/1472/lc8004main_1_10.o
                  0xf8000a                  _FWDT

_03E88A20_at_address_00F8000C
                  0xf8000c          0x2
 _03E88A20_at_address_00F8000C
                  0xf8000c          0x2 build/default/production/_ext/1472/lc8004main_1_10.o
                  0xf8000c                  _FPOR

_03E88A80_at_address_00F8000E
                  0xf8000e          0x2
 _03E88A80_at_address_00F8000E
                  0xf8000e          0x2 build/default/production/_ext/1472/lc8004main_1_10.o
                  0xf8000e                  _FICD

.ivt._INT0Interrupt
                  0x000014          0x2
 .ivt._INT0Interrupt
                  0x000014          0x2 build/default/production/_ext/1472/lc8004main_1_10.o

.ivt._IC1Interrupt
                  0x000016          0x2
 .ivt._IC1Interrupt
                  0x000016          0x2 build/default/production/_ext/1472/lc8004main_1_10.o

.ivt._OC1Interrupt
                  0x000018          0x2
 .ivt._OC1Interrupt
                  0x000018          0x2 build/default/production/_ext/1472/lc8004main_1_10.o

.ivt._T1Interrupt
                  0x00001a          0x2
 .ivt._T1Interrupt
                  0x00001a          0x2 build/default/production/_ext/1472/lc8004main_1_10.o

.ivt._DMA0Interrupt
                  0x00001c          0x2
 .ivt._DMA0Interrupt
                  0x00001c          0x2 build/default/production/_ext/1472/lc8004main_1_10.o

.ivt._IC2Interrupt
                  0x00001e          0x2
 .ivt._IC2Interrupt
                  0x00001e          0x2 build/default/production/_ext/1472/lc8004main_1_10.o

.ivt._OC2Interrupt
                  0x000020          0x2
 .ivt._OC2Interrupt
                  0x000020          0x2 build/default/production/_ext/1472/lc8004main_1_10.o

.ivt._T2Interrupt
                  0x000022          0x2
 .ivt._T2Interrupt
                  0x000022          0x2 build/default/production/_ext/1472/lc8004main_1_10.o

.ivt._T3Interrupt
                  0x000024          0x2
 .ivt._T3Interrupt
                  0x000024          0x2 build/default/production/_ext/1472/lc8004main_1_10.o

.ivt._SPI1Interrupt
                  0x000028          0x2
 .ivt._SPI1Interrupt
                  0x000028          0x2 build/default/production/_ext/1472/lc8004main_1_10.o

.ivt._U1TXInterrupt
                  0x00002c          0x2
 .ivt._U1TXInterrupt
                  0x00002c          0x2 build/default/production/_ext/1472/lc8004main_1_10.o

.ivt._ADC1Interrupt
                  0x00002e          0x2
 .ivt._ADC1Interrupt
                  0x00002e          0x2 build/default/production/_ext/1472/lc8004main_1_10.o

.ivt._DMA1Interrupt
                  0x000030          0x2
 .ivt._DMA1Interrupt
                  0x000030          0x2 build/default/production/_ext/1472/lc8004main_1_10.o

.ivt._SI2C1Interrupt
                  0x000034          0x2
 .ivt._SI2C1Interrupt
                  0x000034          0x2 build/default/production/_ext/1472/lc8004main_1_10.o

.ivt._MI2C1Interrupt
                  0x000036          0x2
 .ivt._MI2C1Interrupt
                  0x000036          0x2 build/default/production/_ext/1472/lc8004main_1_10.o

.ivt._CNInterrupt
                  0x00003a          0x2
 .ivt._CNInterrupt
                  0x00003a          0x2 build/default/production/_ext/1472/lc8004main_1_10.o

.ivt._ADC2Interrupt
                  0x00003e          0x2
 .ivt._ADC2Interrupt
                  0x00003e          0x2 build/default/production/_ext/1472/lc8004main_1_10.o

.ivt._IC7Interrupt
                  0x000040          0x2
 .ivt._IC7Interrupt
                  0x000040          0x2 build/default/production/_ext/1472/lc8004main_1_10.o

.ivt._IC8Interrupt
                  0x000042          0x2
 .ivt._IC8Interrupt
                  0x000042          0x2 build/default/production/_ext/1472/lc8004main_1_10.o

.ivt._DMA2Interrupt
                  0x000044          0x2
 .ivt._DMA2Interrupt
                  0x000044          0x2 build/default/production/_ext/1472/lc8004main_1_10.o

.ivt._OC3Interrupt
                  0x000046          0x2
 .ivt._OC3Interrupt
                  0x000046          0x2 build/default/production/_ext/1472/lc8004main_1_10.o

.ivt._OC4Interrupt
                  0x000048          0x2
 .ivt._OC4Interrupt
                  0x000048          0x2 build/default/production/_ext/1472/lc8004main_1_10.o

.ivt._T4Interrupt
                  0x00004a          0x2
 .ivt._T4Interrupt
                  0x00004a          0x2 build/default/production/_ext/1472/lc8004main_1_10.o

.ivt._INT2Interrupt
                  0x00004e          0x2
 .ivt._INT2Interrupt
                  0x00004e          0x2 build/default/production/_ext/1472/lc8004main_1_10.o

.ivt._U2RXInterrupt
                  0x000050          0x2
 .ivt._U2RXInterrupt
                  0x000050          0x2 build/default/production/_ext/1472/lc8004main_1_10.o

.ivt._U2TXInterrupt
                  0x000052          0x2
 .ivt._U2TXInterrupt
                  0x000052          0x2 build/default/production/_ext/1472/lc8004main_1_10.o

.ivt._SPI2ErrInterrupt
                  0x000054          0x2
 .ivt._SPI2ErrInterrupt
                  0x000054          0x2 build/default/production/_ext/1472/lc8004main_1_10.o

.ivt._SPI2Interrupt
                  0x000056          0x2
 .ivt._SPI2Interrupt
                  0x000056          0x2 build/default/production/_ext/1472/lc8004main_1_10.o

.ivt._C1RxRdyInterrupt
                  0x000058          0x2
 .ivt._C1RxRdyInterrupt
                  0x000058          0x2 build/default/production/_ext/1472/lc8004main_1_10.o

.ivt._C1Interrupt
                  0x00005a          0x2
 .ivt._C1Interrupt
                  0x00005a          0x2 build/default/production/_ext/1472/lc8004main_1_10.o

.ivt._DMA3Interrupt
                  0x00005c          0x2
 .ivt._DMA3Interrupt
                  0x00005c          0x2 build/default/production/_ext/1472/lc8004main_1_10.o

.ivt._IC3Interrupt
                  0x00005e          0x2
 .ivt._IC3Interrupt
                  0x00005e          0x2 build/default/production/_ext/1472/lc8004main_1_10.o

.ivt._IC4Interrupt
                  0x000060          0x2
 .ivt._IC4Interrupt
                  0x000060          0x2 build/default/production/_ext/1472/lc8004main_1_10.o

.ivt._IC5Interrupt
                  0x000062          0x2
 .ivt._IC5Interrupt
                  0x000062          0x2 build/default/production/_ext/1472/lc8004main_1_10.o

.ivt._IC6Interrupt
                  0x000064          0x2
 .ivt._IC6Interrupt
                  0x000064          0x2 build/default/production/_ext/1472/lc8004main_1_10.o

.ivt._OC5Interrupt
                  0x000066          0x2
 .ivt._OC5Interrupt
                  0x000066          0x2 build/default/production/_ext/1472/lc8004main_1_10.o

.ivt._OC6Interrupt
                  0x000068          0x2
 .ivt._OC6Interrupt
                  0x000068          0x2 build/default/production/_ext/1472/lc8004main_1_10.o

.ivt._OC7Interrupt
                  0x00006a          0x2
 .ivt._OC7Interrupt
                  0x00006a          0x2 build/default/production/_ext/1472/lc8004main_1_10.o

.ivt._OC8Interrupt
                  0x00006c          0x2
 .ivt._OC8Interrupt
                  0x00006c          0x2 build/default/production/_ext/1472/lc8004main_1_10.o

.ivt._DMA4Interrupt
                  0x000070          0x2
 .ivt._DMA4Interrupt
                  0x000070          0x2 build/default/production/_ext/1472/lc8004main_1_10.o

.ivt._T6Interrupt
                  0x000072          0x2
 .ivt._T6Interrupt
                  0x000072          0x2 build/default/production/_ext/1472/lc8004main_1_10.o

.ivt._SI2C2Interrupt
                  0x000076          0x2
 .ivt._SI2C2Interrupt
                  0x000076          0x2 build/default/production/_ext/1472/lc8004main_1_10.o

.ivt._MI2C2Interrupt
                  0x000078          0x2
 .ivt._MI2C2Interrupt
                  0x000078          0x2 build/default/production/_ext/1472/lc8004main_1_10.o

.ivt._T8Interrupt
                  0x00007a          0x2
 .ivt._T8Interrupt
                  0x00007a          0x2 build/default/production/_ext/1472/lc8004main_1_10.o

.ivt._T9Interrupt
                  0x00007c          0x2
 .ivt._T9Interrupt
                  0x00007c          0x2 build/default/production/_ext/1472/lc8004main_1_10.o

.ivt._INT3Interrupt
                  0x00007e          0x2
 .ivt._INT3Interrupt
                  0x00007e          0x2 build/default/production/_ext/1472/lc8004main_1_10.o

.ivt._INT4Interrupt
                  0x000080          0x2
 .ivt._INT4Interrupt
                  0x000080          0x2 build/default/production/_ext/1472/lc8004main_1_10.o

.ivt._C2RxRdyInterrupt
                  0x000082          0x2
 .ivt._C2RxRdyInterrupt
                  0x000082          0x2 build/default/production/_ext/1472/lc8004main_1_10.o

.ivt._C2Interrupt
                  0x000084          0x2
 .ivt._C2Interrupt
                  0x000084          0x2 build/default/production/_ext/1472/lc8004main_1_10.o

.ivt._DCIErrInterrupt
                  0x00008a          0x2
 .ivt._DCIErrInterrupt
                  0x00008a          0x2 build/default/production/_ext/1472/lc8004main_1_10.o

.ivt._DCIInterrupt
                  0x00008c          0x2
 .ivt._DCIInterrupt
                  0x00008c          0x2 build/default/production/_ext/1472/lc8004main_1_10.o

.ivt._DMA5Interrupt
                  0x00008e          0x2
 .ivt._DMA5Interrupt
                  0x00008e          0x2 build/default/production/_ext/1472/lc8004main_1_10.o

.ivt._U1ErrInterrupt
                  0x000096          0x2
 .ivt._U1ErrInterrupt
                  0x000096          0x2 build/default/production/_ext/1472/lc8004main_1_10.o

.ivt._U2ErrInterrupt
                  0x000098          0x2
 .ivt._U2ErrInterrupt
                  0x000098          0x2 build/default/production/_ext/1472/lc8004main_1_10.o

.ivt._DMA6Interrupt
                  0x00009c          0x2
 .ivt._DMA6Interrupt
                  0x00009c          0x2 build/default/production/_ext/1472/lc8004main_1_10.o

.ivt._DMA7Interrupt
                  0x00009e          0x2
 .ivt._DMA7Interrupt
                  0x00009e          0x2 build/default/production/_ext/1472/lc8004main_1_10.o

.ivt._C1TxReqInterrupt
                  0x0000a0          0x2
 .ivt._C1TxReqInterrupt
                  0x0000a0          0x2 build/default/production/_ext/1472/lc8004main_1_10.o

.ivt._C2TxReqInterrupt
                  0x0000a2          0x2
 .ivt._C2TxReqInterrupt
                  0x0000a2          0x2 build/default/production/_ext/1472/lc8004main_1_10.o

.aivt._AltINT0Interrupt
                  0x000114          0x2
 .aivt._AltINT0Interrupt
                  0x000114          0x2 build/default/production/_ext/1472/lc8004main_1_10.o

.aivt._AltIC1Interrupt
                  0x000116          0x2
 .aivt._AltIC1Interrupt
                  0x000116          0x2 build/default/production/_ext/1472/lc8004main_1_10.o

.aivt._AltOC1Interrupt
                  0x000118          0x2
 .aivt._AltOC1Interrupt
                  0x000118          0x2 build/default/production/_ext/1472/lc8004main_1_10.o

.aivt._AltT1Interrupt
                  0x00011a          0x2
 .aivt._AltT1Interrupt
                  0x00011a          0x2 build/default/production/_ext/1472/lc8004main_1_10.o

.aivt._AltDMA0Interrupt
                  0x00011c          0x2
 .aivt._AltDMA0Interrupt
                  0x00011c          0x2 build/default/production/_ext/1472/lc8004main_1_10.o

.aivt._AltIC2Interrupt
                  0x00011e          0x2
 .aivt._AltIC2Interrupt
                  0x00011e          0x2 build/default/production/_ext/1472/lc8004main_1_10.o

.aivt._AltOC2Interrupt
                  0x000120          0x2
 .aivt._AltOC2Interrupt
                  0x000120          0x2 build/default/production/_ext/1472/lc8004main_1_10.o

.aivt._AltT2Interrupt
                  0x000122          0x2
 .aivt._AltT2Interrupt
                  0x000122          0x2 build/default/production/_ext/1472/lc8004main_1_10.o

.aivt._AltT3Interrupt
                  0x000124          0x2
 .aivt._AltT3Interrupt
                  0x000124          0x2 build/default/production/_ext/1472/lc8004main_1_10.o

.aivt._AltSPI1Interrupt
                  0x000128          0x2
 .aivt._AltSPI1Interrupt
                  0x000128          0x2 build/default/production/_ext/1472/lc8004main_1_10.o

.aivt._AltU1TXInterrupt
                  0x00012c          0x2
 .aivt._AltU1TXInterrupt
                  0x00012c          0x2 build/default/production/_ext/1472/lc8004main_1_10.o

.aivt._AltADC1Interrupt
                  0x00012e          0x2
 .aivt._AltADC1Interrupt
                  0x00012e          0x2 build/default/production/_ext/1472/lc8004main_1_10.o

.aivt._AltDMA1Interrupt
                  0x000130          0x2
 .aivt._AltDMA1Interrupt
                  0x000130          0x2 build/default/production/_ext/1472/lc8004main_1_10.o

.aivt._AltSI2C1Interrupt
                  0x000134          0x2
 .aivt._AltSI2C1Interrupt
                  0x000134          0x2 build/default/production/_ext/1472/lc8004main_1_10.o

.aivt._AltMI2C1Interrupt
                  0x000136          0x2
 .aivt._AltMI2C1Interrupt
                  0x000136          0x2 build/default/production/_ext/1472/lc8004main_1_10.o

.aivt._AltCNInterrupt
                  0x00013a          0x2
 .aivt._AltCNInterrupt
                  0x00013a          0x2 build/default/production/_ext/1472/lc8004main_1_10.o

.aivt._AltADC2Interrupt
                  0x00013e          0x2
 .aivt._AltADC2Interrupt
                  0x00013e          0x2 build/default/production/_ext/1472/lc8004main_1_10.o

.aivt._AltIC7Interrupt
                  0x000140          0x2
 .aivt._AltIC7Interrupt
                  0x000140          0x2 build/default/production/_ext/1472/lc8004main_1_10.o

.aivt._AltIC8Interrupt
                  0x000142          0x2
 .aivt._AltIC8Interrupt
                  0x000142          0x2 build/default/production/_ext/1472/lc8004main_1_10.o

.aivt._AltDMA2Interrupt
                  0x000144          0x2
 .aivt._AltDMA2Interrupt
                  0x000144          0x2 build/default/production/_ext/1472/lc8004main_1_10.o

.aivt._AltOC3Interrupt
                  0x000146          0x2
 .aivt._AltOC3Interrupt
                  0x000146          0x2 build/default/production/_ext/1472/lc8004main_1_10.o

.aivt._AltOC4Interrupt
                  0x000148          0x2
 .aivt._AltOC4Interrupt
                  0x000148          0x2 build/default/production/_ext/1472/lc8004main_1_10.o

.aivt._AltT4Interrupt
                  0x00014a          0x2
 .aivt._AltT4Interrupt
                  0x00014a          0x2 build/default/production/_ext/1472/lc8004main_1_10.o

.aivt._AltINT2Interrupt
                  0x00014e          0x2
 .aivt._AltINT2Interrupt
                  0x00014e          0x2 build/default/production/_ext/1472/lc8004main_1_10.o

.aivt._AltU2RXInterrupt
                  0x000150          0x2
 .aivt._AltU2RXInterrupt
                  0x000150          0x2 build/default/production/_ext/1472/lc8004main_1_10.o

.aivt._AltU2TXInterrupt
                  0x000152          0x2
 .aivt._AltU2TXInterrupt
                  0x000152          0x2 build/default/production/_ext/1472/lc8004main_1_10.o

.aivt._AltSPI2ErrInterrupt
                  0x000154          0x2
 .aivt._AltSPI2ErrInterrupt
                  0x000154          0x2 build/default/production/_ext/1472/lc8004main_1_10.o

.aivt._AltSPI2Interrupt
                  0x000156          0x2
 .aivt._AltSPI2Interrupt
                  0x000156          0x2 build/default/production/_ext/1472/lc8004main_1_10.o

.aivt._AltC1RxRdyInterrupt
                  0x000158          0x2
 .aivt._AltC1RxRdyInterrupt
                  0x000158          0x2 build/default/production/_ext/1472/lc8004main_1_10.o

.aivt._AltC1Interrupt
                  0x00015a          0x2
 .aivt._AltC1Interrupt
                  0x00015a          0x2 build/default/production/_ext/1472/lc8004main_1_10.o

.aivt._AltDMA3Interrupt
                  0x00015c          0x2
 .aivt._AltDMA3Interrupt
                  0x00015c          0x2 build/default/production/_ext/1472/lc8004main_1_10.o

.aivt._AltIC3Interrupt
                  0x00015e          0x2
 .aivt._AltIC3Interrupt
                  0x00015e          0x2 build/default/production/_ext/1472/lc8004main_1_10.o

.aivt._AltIC4Interrupt
                  0x000160          0x2
 .aivt._AltIC4Interrupt
                  0x000160          0x2 build/default/production/_ext/1472/lc8004main_1_10.o

.aivt._AltIC5Interrupt
                  0x000162          0x2
 .aivt._AltIC5Interrupt
                  0x000162          0x2 build/default/production/_ext/1472/lc8004main_1_10.o

.aivt._AltIC6Interrupt
                  0x000164          0x2
 .aivt._AltIC6Interrupt
                  0x000164          0x2 build/default/production/_ext/1472/lc8004main_1_10.o

.aivt._AltOC5Interrupt
                  0x000166          0x2
 .aivt._AltOC5Interrupt
                  0x000166          0x2 build/default/production/_ext/1472/lc8004main_1_10.o

.aivt._AltOC6Interrupt
                  0x000168          0x2
 .aivt._AltOC6Interrupt
                  0x000168          0x2 build/default/production/_ext/1472/lc8004main_1_10.o

.aivt._AltOC7Interrupt
                  0x00016a          0x2
 .aivt._AltOC7Interrupt
                  0x00016a          0x2 build/default/production/_ext/1472/lc8004main_1_10.o

.aivt._AltOC8Interrupt
                  0x00016c          0x2
 .aivt._AltOC8Interrupt
                  0x00016c          0x2 build/default/production/_ext/1472/lc8004main_1_10.o

.aivt._AltDMA4Interrupt
                  0x000170          0x2
 .aivt._AltDMA4Interrupt
                  0x000170          0x2 build/default/production/_ext/1472/lc8004main_1_10.o

.aivt._AltT6Interrupt
                  0x000172          0x2
 .aivt._AltT6Interrupt
                  0x000172          0x2 build/default/production/_ext/1472/lc8004main_1_10.o

.aivt._AltSI2C2Interrupt
                  0x000176          0x2
 .aivt._AltSI2C2Interrupt
                  0x000176          0x2 build/default/production/_ext/1472/lc8004main_1_10.o

.aivt._AltMI2C2Interrupt
                  0x000178          0x2
 .aivt._AltMI2C2Interrupt
                  0x000178          0x2 build/default/production/_ext/1472/lc8004main_1_10.o

.aivt._AltT8Interrupt
                  0x00017a          0x2
 .aivt._AltT8Interrupt
                  0x00017a          0x2 build/default/production/_ext/1472/lc8004main_1_10.o

.aivt._AltT9Interrupt
                  0x00017c          0x2
 .aivt._AltT9Interrupt
                  0x00017c          0x2 build/default/production/_ext/1472/lc8004main_1_10.o

.aivt._AltINT3Interrupt
                  0x00017e          0x2
 .aivt._AltINT3Interrupt
                  0x00017e          0x2 build/default/production/_ext/1472/lc8004main_1_10.o

.aivt._AltINT4Interrupt
                  0x000180          0x2
 .aivt._AltINT4Interrupt
                  0x000180          0x2 build/default/production/_ext/1472/lc8004main_1_10.o

.aivt._AltC2RxRdyInterrupt
                  0x000182          0x2
 .aivt._AltC2RxRdyInterrupt
                  0x000182          0x2 build/default/production/_ext/1472/lc8004main_1_10.o

.aivt._AltC2Interrupt
                  0x000184          0x2
 .aivt._AltC2Interrupt
                  0x000184          0x2 build/default/production/_ext/1472/lc8004main_1_10.o

.aivt._AltDCIErrInterrupt
                  0x00018a          0x2
 .aivt._AltDCIErrInterrupt
                  0x00018a          0x2 build/default/production/_ext/1472/lc8004main_1_10.o

.aivt._AltDCIInterrupt
                  0x00018c          0x2
 .aivt._AltDCIInterrupt
                  0x00018c          0x2 build/default/production/_ext/1472/lc8004main_1_10.o

.aivt._AltDMA5Interrupt
                  0x00018e          0x2
 .aivt._AltDMA5Interrupt
                  0x00018e          0x2 build/default/production/_ext/1472/lc8004main_1_10.o

.aivt._AltU1ErrInterrupt
                  0x000196          0x2
 .aivt._AltU1ErrInterrupt
                  0x000196          0x2 build/default/production/_ext/1472/lc8004main_1_10.o

.aivt._AltU2ErrInterrupt
                  0x000198          0x2
 .aivt._AltU2ErrInterrupt
                  0x000198          0x2 build/default/production/_ext/1472/lc8004main_1_10.o

.aivt._AltDMA6Interrupt
                  0x00019c          0x2
 .aivt._AltDMA6Interrupt
                  0x00019c          0x2 build/default/production/_ext/1472/lc8004main_1_10.o

.aivt._AltDMA7Interrupt
                  0x00019e          0x2
 .aivt._AltDMA7Interrupt
                  0x00019e          0x2 build/default/production/_ext/1472/lc8004main_1_10.o

.aivt._AltC1TxReqInterrupt
                  0x0001a0          0x2
 .aivt._AltC1TxReqInterrupt
                  0x0001a0          0x2 build/default/production/_ext/1472/lc8004main_1_10.o

.aivt._AltC2TxReqInterrupt
                  0x0001a2          0x2
 .aivt._AltC2TxReqInterrupt
                  0x0001a2          0x2 build/default/production/_ext/1472/lc8004main_1_10.o

.ivt._U1RXInterrupt
                  0x00002a          0x2
 .ivt._U1RXInterrupt
                  0x00002a          0x2 build/default/production/_ext/1472/lc8004main_1_10.o

.aivt._AltU1RXInterrupt
                  0x00012a          0x2
 .aivt._AltU1RXInterrupt
                  0x00012a          0x2 build/default/production/_ext/1472/lc8004main_1_10.o

.ivt._INT1Interrupt
                  0x00003c          0x2
 .ivt._INT1Interrupt
                  0x00003c          0x2 build/default/production/_ext/1472/lc8004main_1_10.o

.aivt._AltINT1Interrupt
                  0x00013c          0x2
 .aivt._AltINT1Interrupt
                  0x00013c          0x2 build/default/production/_ext/1472/lc8004main_1_10.o

.ivt._OscillatorFail
                  0x000006          0x2
 .ivt._OscillatorFail
                  0x000006          0x2 build/default/production/_ext/1472/lc8004main_1_10.o

.aivt._AltOscillatorFail
                  0x000106          0x2
 .aivt._AltOscillatorFail
                  0x000106          0x2 build/default/production/_ext/1472/lc8004main_1_10.o

.ivt._T5Interrupt
                  0x00004c          0x2
 .ivt._T5Interrupt
                  0x00004c          0x2 build/default/production/_ext/1472/lc8004main_1_10.o

.aivt._AltT5Interrupt
                  0x00014c          0x2
 .aivt._AltT5Interrupt
                  0x00014c          0x2 build/default/production/_ext/1472/lc8004main_1_10.o

.ivt._T7Interrupt
                  0x000074          0x2
 .ivt._T7Interrupt
                  0x000074          0x2 build/default/production/_ext/1472/lc8004main_1_10.o

.aivt._AltT7Interrupt
                  0x000174          0x2
 .aivt._AltT7Interrupt
                  0x000174          0x2 build/default/production/_ext/1472/lc8004main_1_10.o

.text             0x001e5a      0x19ee2
 .text            0x001e5a      0x19ee2 build/default/production/_ext/1472/lc8004main_1_10.o
                  0x001e5a                  _main
                  0x0021c4                  __3VX_on
                  0x0021da                  __3VX_off
                  0x0021f2                  _bcd2d
                  0x0022f0                  _Blink
                  0x00233e                  _BT_D
                  0x00236c                  _BT_E
                  0x0023ae                  _BT_R
                  0x002438                  _BTStatus
                  0x002608                  _BTONE
                  0x00263a                  _BTZERO
                  0x002676                  _Buf2DateTime
                  0x00314e                  _Buffer2Decimal
                  0x003356                  _Buf2GageData
                  0x00386c                  _checkScanInterval
                  0x003a68                  _checkSynch
                  0x003b2a                  _clockMux
                  0x003b52                  _clockThMux
                  0x003b66                  _CMDcomm
                  0x00719a                  _CMD_LINE
                  0x0071b6                  _configMODBUStimers
                  0x007242                  _configShutdownTimer
                  0x007254                  _configTimers
                  0x007286                  _configUARTnormal
                  0x0072c8                  _controlPortStatus
                  0x007498                  _CRC
                  0x00751c                  _CRC_SN
                  0x00757c                  _crlf
                  0x0075a2                  _debounce
                  0x0075c0                  _disableAlarm
                  0x00761c                  _disableBT
                  0x007674                  _disableChannel
                  0x007800                  _disableTHChannel
                  0x00798c                  _disableINT1
                  0x007996                  _disableOP
                  0x0079e2                  _DISLOGINT
                  0x007a0c                  _disableTimers
                  0x007a1a                  _disableVWchannel
                  0x007a38                  _displayBCD
                  0x007a8e                  _displayClock
                  0x007bca                  _displayFRAMError
                  0x007c06                  _displayGageInfo
                  0x0087f4                  _displayLoggingWillStart
                  0x008854                  _displayLoggingWillStop
                  0x0088c6                  _displayLogInterval
                  0x008a96                  _displayLogTable
                  0x008ad6                  _displayMemoryStatus
                  0x008bea                  _displayMUX
                  0x00a0d6                  _displayReading
                  0x00cb16                  _displayScanInterval
                  0x00cb5a                  _displayTempReading
                  0x0100ae                  _displayTemporaryStatus
                  0x0101fa                  _displayTestMenu
                  0x0102ac                  _enableAlarm
                  0x01033a                  _enableBT
                  0x01036c                  _enableChannel
                  0x0104f0                  _enableTHChannel
                  0x010674                  _enableINT1
                  0x010680                  _ENLOGINT
                  0x0106bc                  _enableOP
                  0x0106fe                  _f32toINT16
                  0x010814                  _enableVWchannel
                  0x01097c                  _filterArray
                  0x010a2c                  _formatandDisplayGageInfo
                  0x010e3e                  _getChannel
                  0x010e9a                  _getSNbytes
                  0x0110c0                  _getConversion
                  0x011174                  _getGageInfo
                  0x012648                  _getGageType
                  0x01271a                  _getLogInterval
                  0x01277a                  _getLogIntLength
                  0x012bea                  _getLogIterations
                  0x012de4                  _getFrequency
                  0x012f94                  _getSerialNumber
                  0x01307c                  _getThermtype
                  0x0130f0                  _getTxChecksum
                  0x01312e                  _handleCOMError
                  0x01313a                  _handleFRAMResults
                  0x01316e                  _hms
                  0x013296                  _hms2s
                  0x0132fa                  _INT16tof32
                  0x013348                  _loadDefaults
                  0x013846                  _MODBUScheckScanInterval
                  0x01392c                  _MODBUScomm
                  0x0145a8                  _MODBUS_DisableStartTime
                  0x0145f0                  _MODBUS_EnableStartTime
                  0x01469a                  _MODBUS_DisableStopTime
                  0x0146d6                  _MODBUS_EnableStopTime
                  0x0146de                  _MODBUS_RX
                  0x01480c                  _MODBUS_TX
                  0x014876                  _MX1
                  0x0148f0                  _MX4
                  0x01493c                  _MX8
                  0x014988                  _MX8T
                  0x0149d4                  _MX16
                  0x014a20                  _MX32
                  0x014a6c                  _MX32T
                  0x014ab8                  _O_D
                  0x014ae6                  _O_E
                  0x014b28                  _pack
                  0x014b46                  _pluck
                  0x014ca0                  _pluckOFF
                  0x014cb0                  _pluckON
                  0x014cce                  _pluckPOS
                  0x014cd8                  _pluckNEG
                  0x014ce2                  _processDS3231Temperature
                  0x014d02                  _processReading
                  0x01511c                  _prompt
                  0x015152                  _readClock
                  0x01528a                  _readDS3231temperature
                  0x0152b8                  _R
                  0x0152f0                  _READ_TIME
                  0x0154e6                  _ReadSN
                  0x0155a6                  _RST
                  0x0155c0                  _read_vw
                  0x01562e                  _reloadLogTable
                  0x015666                  _resetMemory
                  0x0156bc                  _restoreSettings
                  0x01576e                  _RTChms2s
                  0x015854                  _RTCtoDecimal
                  0x01590a                  _seconds2hms
                  0x01595a                  _setADCsleep
                  0x015976                  _setADCwake
                  0x015988                  _setChannelConversion
                  0x015d0c                  _setChannelThermtype
                  0x015f80                  _setClock
                  0x01610e                  _setup
                  0x016234                  _shutdown
                  0x0162b8                  _start32KHz
                  0x0162cc                  _startLogging
                  0x016466                  _START
                  0x016578                  _stop32KHz
                  0x016592                  _stopLogging
                  0x01674e                  _STOP
                  0x016822                  _STOPTIME
                  0x016998                  _storeGageType
                  0x0169be                  _storeLogInterval
                  0x016aec                  _storeChannelReading
                  0x016cbe                  _storeReading
                  0x017458                  _storeTempChannelReading
                  0x01752a                  _storeTempChannelTHReading
                  0x01754e                  _storeTempReading
                  0x017592                  _synch
                  0x0175f0                  _synch_one
                  0x017674                  _synch_zero
                  0x0176f8                  _take_analog_reading
                  0x01783c                  _take_fast_analog_reading
                  0x0178de                  _take_One_Complete_Reading
                  0x01969a                  _take_reading
                  0x0197e2                  _testPoint
                  0x01985c                  _testPoint2
                  0x019888                  _testReset
                  0x0199a4                  _toBCD
                  0x019ad4                  _toJulian
                  0x019bfa                  _toMonthDay
                  0x019f40                  _unpack
                  0x019f62                  _upD8RTCAlarm1
                  0x01a77c                  _V_HT2C
                  0x01a9dc                  _vwf32toINT16
                  0x01ab2a                  _wait
                  0x01ab52                  _wait2S
                  0x01ab80                  _wrap_one
                  0x01abb0                  _wrap_stop
                  0x01abca                  _wrap_zero
                  0x01abfa                  _WRITE_TIME
                  0x01acac                  _X
                  0x01acf2                  __INT0Interrupt
                  0x01ad06                  __IC1Interrupt
                  0x01ad1a                  __OC1Interrupt
                  0x01ad2e                  __T1Interrupt
                  0x01ad42                  __DMA0Interrupt
                  0x01ad56                  __IC2Interrupt
                  0x01ad6a                  __OC2Interrupt
                  0x01ad7e                  __T2Interrupt
                  0x01ad92                  __T3Interrupt
                  0x01ada6                  __SPI1Interrupt
                  0x01adba                  __U1TXInterrupt
                  0x01adce                  __ADC1Interrupt
                  0x01ade2                  __DMA1Interrupt
                  0x01adf6                  __SI2C1Interrupt
                  0x01ae0a                  __MI2C1Interrupt
                  0x01ae1e                  __CNInterrupt
                  0x01ae32                  __ADC2Interrupt
                  0x01ae46                  __IC7Interrupt
                  0x01ae5a                  __IC8Interrupt
                  0x01ae6e                  __DMA2Interrupt
                  0x01ae82                  __OC3Interrupt
                  0x01ae96                  __OC4Interrupt
                  0x01aeaa                  __T4Interrupt
                  0x01aebe                  __INT2Interrupt
                  0x01aed2                  __U2RXInterrupt
                  0x01aee6                  __U2TXInterrupt
                  0x01aefa                  __SPI2ErrInterrupt
                  0x01af0e                  __SPI2Interrupt
                  0x01af22                  __C1RxRdyInterrupt
                  0x01af36                  __C1Interrupt
                  0x01af4a                  __DMA3Interrupt
                  0x01af5e                  __IC3Interrupt
                  0x01af72                  __IC4Interrupt
                  0x01af86                  __IC5Interrupt
                  0x01af9a                  __IC6Interrupt
                  0x01afae                  __OC5Interrupt
                  0x01afc2                  __OC6Interrupt
                  0x01afd6                  __OC7Interrupt
                  0x01afea                  __OC8Interrupt
                  0x01affe                  __DMA4Interrupt
                  0x01b012                  __T6Interrupt
                  0x01b026                  __SI2C2Interrupt
                  0x01b03a                  __MI2C2Interrupt
                  0x01b04e                  __T8Interrupt
                  0x01b062                  __T9Interrupt
                  0x01b076                  __INT3Interrupt
                  0x01b08a                  __INT4Interrupt
                  0x01b09e                  __C2RxRdyInterrupt
                  0x01b0b2                  __C2Interrupt
                  0x01b0c6                  __DCIErrInterrupt
                  0x01b0da                  __DCIInterrupt
                  0x01b0ee                  __DMA5Interrupt
                  0x01b102                  __U1ErrInterrupt
                  0x01b116                  __U2ErrInterrupt
                  0x01b12a                  __DMA6Interrupt
                  0x01b13e                  __DMA7Interrupt
                  0x01b152                  __C1TxReqInterrupt
                  0x01b166                  __C2TxReqInterrupt
                  0x01b17a                  __AltINT0Interrupt
                  0x01b18e                  __AltIC1Interrupt
                  0x01b1a2                  __AltOC1Interrupt
                  0x01b1b6                  __AltT1Interrupt
                  0x01b1ca                  __AltDMA0Interrupt
                  0x01b1de                  __AltIC2Interrupt
                  0x01b1f2                  __AltOC2Interrupt
                  0x01b206                  __AltT2Interrupt
                  0x01b21a                  __AltT3Interrupt
                  0x01b22e                  __AltSPI1Interrupt
                  0x01b242                  __AltU1TXInterrupt
                  0x01b256                  __AltADC1Interrupt
                  0x01b26a                  __AltDMA1Interrupt
                  0x01b27e                  __AltSI2C1Interrupt
                  0x01b292                  __AltMI2C1Interrupt
                  0x01b2a6                  __AltCNInterrupt
                  0x01b2ba                  __AltADC2Interrupt
                  0x01b2ce                  __AltIC7Interrupt
                  0x01b2e2                  __AltIC8Interrupt
                  0x01b2f6                  __AltDMA2Interrupt
                  0x01b30a                  __AltOC3Interrupt
                  0x01b31e                  __AltOC4Interrupt
                  0x01b332                  __AltT4Interrupt
                  0x01b346                  __AltINT2Interrupt
                  0x01b35a                  __AltU2RXInterrupt
                  0x01b36e                  __AltU2TXInterrupt
                  0x01b382                  __AltSPI2ErrInterrupt
                  0x01b396                  __AltSPI2Interrupt
                  0x01b3aa                  __AltC1RxRdyInterrupt
                  0x01b3be                  __AltC1Interrupt
                  0x01b3d2                  __AltDMA3Interrupt
                  0x01b3e6                  __AltIC3Interrupt
                  0x01b3fa                  __AltIC4Interrupt
                  0x01b40e                  __AltIC5Interrupt
                  0x01b422                  __AltIC6Interrupt
                  0x01b436                  __AltOC5Interrupt
                  0x01b44a                  __AltOC6Interrupt
                  0x01b45e                  __AltOC7Interrupt
                  0x01b472                  __AltOC8Interrupt
                  0x01b486                  __AltDMA4Interrupt
                  0x01b49a                  __AltT6Interrupt
                  0x01b4ae                  __AltSI2C2Interrupt
                  0x01b4c2                  __AltMI2C2Interrupt
                  0x01b4d6                  __AltT8Interrupt
                  0x01b4ea                  __AltT9Interrupt
                  0x01b4fe                  __AltINT3Interrupt
                  0x01b512                  __AltINT4Interrupt
                  0x01b526                  __AltC2RxRdyInterrupt
                  0x01b53a                  __AltC2Interrupt
                  0x01b54e                  __AltDCIErrInterrupt
                  0x01b562                  __AltDCIInterrupt
                  0x01b576                  __AltDMA5Interrupt
                  0x01b58a                  __AltU1ErrInterrupt
                  0x01b59e                  __AltU2ErrInterrupt
                  0x01b5b2                  __AltDMA6Interrupt
                  0x01b5c6                  __AltDMA7Interrupt
                  0x01b5da                  __AltC1TxReqInterrupt
                  0x01b5ee                  __AltC2TxReqInterrupt
                  0x01b602                  __U1RXInterrupt
                  0x01b642                  __AltU1RXInterrupt
                  0x01b682                  __INT1Interrupt
                  0x01b9a6                  __AltINT1Interrupt
                  0x01bc98                  __OscillatorFail
                  0x01bcac                  __AltOscillatorFail
                  0x01bcc0                  __T5Interrupt
                  0x01bce2                  __AltT5Interrupt
                  0x01bd02                  __T7Interrupt
                  0x01bd22                  __AltT7Interrupt

.dinit            0x01bd3c       0x150e
 .dinit           0x01bd3c       0x150e data_init

.text             0x01d24a       0x1110
 .text            0x01d24a        0xf9a build/default/production/_ext/1472/LC8004extFRAM_i.o
                  0x01d24a                  _displayError
                  0x01d302                  _write_Int_FRAM
                  0x01d3c8                  _read_Int_FRAM
                  0x01d510                  _write_longFRAM
                  0x01d53a                  _read_longFRAM
                  0x01d564                  _read_float
                  0x01d58e                  _write_Flt_FRAM
                  0x01d6be                  _read_Flt_FRAM
                  0x01d8be                  _selectBank
                  0x01db4a                  _sleepFRAM
                  0x01dbfc                  _testFRAM
                  0x01e198                  _testNACK
 .text            0x01e1e4         0xc4 build/default/production/_ext/1472/AD5241b.o
                  0x01e1e4                  _read_AD5241
                  0x01e23e                  _write_AD5241
 .text            0x01e2a8         0xb2 build/default/production/_ext/1472/LC8004delay_b.o
                  0x01e2a8                  _delay
                  0x01e2c0                  _shutdownTimer
                  0x01e316                  _shutdownTimerwithReset
                  0x01e354                  _StopshutdownTimer

.init.delay32     0x01e35a         0x1c
 .init.delay32    0x01e35a         0x1c c:/program files (x86)/microchip/xc16/v1.26/bin/bin/../../lib\liblega-pic30-elf.a(delay32.Leo)
                  0x01e35a                  ___delay32

.shared.dinit     0x01e376          0x2
 .shared.dinit    0x01e376          0x2 shared_data_init
